(dp0
S'Betty Hope'
p1
VBoard members Ralph Brennan
p2
sS'Kimberly Hulbert'
p3
VNew Beginnings director of human services
p4
sS'Lee Green'
p5
S''
p6
sS'Robert Rachal'
p7
VAttorney
p8
sS'Jim Austin'
p9
Vdirector of building operations for the RSD
p10
sS'Gerald Posey'
p11
Vdean of students
p12
sS'Eve Abrams'
p13
V_
p14
sS'Elora Turner'
p15
g6
sS'Jerry Speir'
p16
g6
sS'Chuck Perrodin'
p17
Vthe coastal authoritys chief spokesman
p18
sS'Kevin Wildes'
p19
VRev.
p20
sS'Roger Jones'
p21
g6
sS'Renee Peck'
p22
Vformer editor of Lagniappe
p23
sS'Randy Roach'
p24
VLake Charles Mayor
p25
sS'Susan Guidry'
p26
VCouncilwoman
p27
sS'Todd Morrell'
p28
VSgt.
p29
sS'Christina Swarns'
p30
g6
sS'Robert Scott'
p31
Vpresident of the Public Affairs Research Council
p32
sS'Gilbert Buras'
p33
Vthe Civil Service Commissions general counsel
p34
sS'Deborah Langhoff'
p35
VGuidry aide Amy Chandler
p36
sS'Jason Higgenbotham'
p37
Vpresident of the parent-teacher organization
p38
sS'Stacy Overstreet'
p39
g6
sS'Clark Prep'
p40
VFirstLines only high school
p41
sS'Morris Jeff Principal Patricia Perkins'
p42
Vthe schools director of finance and operations
p43
sS'Brenda Borne'
p44
VMiddle School Principal
p45
sS'Janet Bean'
p46
g6
sS'Lauren Hotard'
p47
Va spokeswoman for Councilwoman Stacy Head
p48
sS'Cynthia Williams'
p49
VCEO
p50
sS'Madlyn Bagneris'
p51
g6
sS'Collins'
p52
Vthe Adams and Reese attorney
p53
sS'Joseph Williams'
p54
g6
sS'Tom Perriello'
p55
VVirginia Democrat
p56
sS'Richard Campanella'
p57
VTulane University geographer
p58
sS'John Teal'
p59
Vsenior scientist emeritus at Woods Hole
p60
sS'Heidi Lovett Daniels'
p61
Vformer school board member
p62
sS'Charles J. Southall III'
p63
g6
sS'Charles Brown'
p64
Vthe librarys executive director
p65
sS'Thomas Klingler'
p66
Vboard members Dr.
p67
sS'Katrina Jackson'
p68
VD-Monroe
p69
sS'Nolan McSwain'
p70
g6
sS'Sylvia Arcenaux-Ellison'
p71
Vproject manager
p72
sS'Jones Swanson'
p73
Vthe main law firm handling the suit
p74
sS'David Napoleon'
p75
VMembers
p76
sS'Wade Ragas'
p77
Va longtime expert on real estate
p78
sS'Robert Stellingworth'
p79
g6
sS'Mike Pinkerton'
p80
g6
sS'Scott Ward'
p81
Vthe Hiltons resident manager
p82
sS'Adam Hawf'
p83
Vthe RSDs deputy superintendent of portfolios
p84
sS'Leon Cannizzaro'
p85
VDistrict Attorney
p86
sS'Janet Gaudet'
p87
VGreer
p88
sS'Bill Gwyn'
p89
g6
sS'Brenda Bourne'
p90
Vschool principal
p91
sS'Jimmy Faircloth'
p92
Vthen the governors executive counsel
p93
sS'John Wettermark'
p94
VDominique Wilson and Stephanie Davis
p95
sS'LaToya Cantrell'
p96
Vthe board chairwoman
p97
sS'Kirk Talbot'
p98
VState Rep.
p99
sS'Gentry'
p100
g6
sS'Neil Abramson'
p101
VD-New Orleans
p102
sS'Alisa Dupre'
p103
VAudubons operations manager
p104
sS'Morris Jeff'
p105
g6
sS'Steve Beatty'
p106
Veditor
p107
sS'Paul Kemp'
p108
Vboth of Baton Rouge
p109
sS'Luceia LeDoux'
p110
g6
sS'Mary Jacobs Jones'
p111
Vproject director
p112
sS'Alysson Mills'
p113
Vdirector of program
p114
sS'Page Cortez'
p115
VSen.
p116
sS'Leanne Poirier'
p117
VVelocity Agency
p118
sS'Keith Hardie'
p119
VAttorney
p120
sS'Anderson Baker'
p121
Vboard chairman
p122
sS'Roy Qualls'
p123
VU.S. National Guardsman
p124
sS'Molly Oehmichen'
p125
g6
sS'Keith Sanders'
p126
Vcolleague
p127
sS'Major Thibaut'
p128
VState Rep.
p129
sS'Will Bradshaw'
p130
g6
sS'Ken Foster'
p131
g6
sS'Darryl Berger'
p132
g6
sS'David Uhlmann'
p133
g6
sS'Jonny Bartlett'
p134
VVice Principal
p135
sS'Brett Hunt'
p136
g6
sS'Brendell Deemer'
p137
VCPA
p138
sS'Eric Greely Sr.'
p139
Vhttp://lensnola.wpengine.netdna-cdn.com/wp-content/uploads/2013/07/Greely-headshot-771x1156.jpg
p140
sS'Glendalyn Lewis'
p141
Va current Einstein teacher
p142
sS'Marion David Ryder'
p143
g6
sS'Kate Schneiderman'
p144
Va spokesman for Councilman Arnie Fielkow
p145
sS'Doris Roch-Hicks'
p146
VCEO
p147
sS'John LaBruzzo'
p148
VR-Metairie
p149
sS'Lois Dejean'
p150
VRev.
p151
sS'Jessica Williams'
p152
VThe Lens staff writer |
p153
sS'Nathaniel Weaver'
p154
Vproject manager
p155
sS'Jerry Spohrer'
p156
g6
sS'Glenn Koepp'
p157
g6
sS'Kathleen Riedlinger'
p158
Vschool CEO
p159
sS'MarlinGusman'
p160
VSheriff
p161
sS'Marcy Block'
p162
g6
sS'Kate Mehok'
p163
VCEO
p164
sS'David Bailey'
p165
Vthe boards treasurer
p166
sS'TK Tieu'
p167
VTieu
p168
sS'Stephanie Moffett'
p169
Va spokeswoman for FEMA
p170
sS'Jill Otis'
p171
Vthe schools principal
p172
sS'Kristin Huston'
p173
Vboard member
p174
sS'David Maag'
p175
g6
sS'David Benelli'
p176
VBoard member
p177
sS'Ala'
p178
VOpelika
p179
sS'Morgan Ripski'
p180
VCollegiate Academies president
p181
sS'Lundbeck'
p182
Vthe original manufacturer
p183
sS'Monique Doucette'
p184
Van attorney with Ogletree Deakins
p185
sS'Ray Garofalo'
p186
VState Rep.
p187
sS'James Huger'
p188
Vthe boards chairman
p189
sS'Gaston Galjour'
p190
Vspecialist
p191
sS'Mike Walsworth'
p192
VSen.
p193
sS'Pritchard'
p194
Vhttp://farm4.static.flickr.com/3488/3735051493_411dda3a2e.jpg
p195
sS'Michael Harrison'
p196
Vchief
p197
sS'Gabriel Bordenave'
p198
Vthe Recovery School Districts portfolio communications director
p199
sS'Jay Dardenne'
p200
VLt. Gov.
p201
sS'Christopher Kane'
p202
g6
sS'Judy Collins'
p203
Vresources manager
p204
sS'Sean Lansing'
p205
Vthe governors press secretary
p206
sS'Pamela Randall'
p207
VPrincipal
p208
sS'Harris'
p209
VEssence
p210
sS'Al Alcazar'
p211
Vvice-chair
p212
sS'Matt Dennis'
p213
Vowner of dennisbonding.com
p214
sS'Bill Quigley'
p215
Vthe groups attorney
p216
sS'Monique Barial'
p217
Vhttp://lensnola.wpengine.netdna-cdn.com/wp-content/uploads/2014/10/Monique-Barial-High_Resolution-Photo-336x512.jpg
p218
sS'Chris Cantu'
p219
Vmiddle school assistant principal
p220
sS'Alice Harte'
p221
Vtwo former ACSA schools
p222
sS'Frank Minyard'
p223
VCoroner
p224
sS'Rosalynne Dennis'
p225
VExceptional Childrens Services
p226
sS'Jeff Smith'
p227
g6
sS'Todd Schexnayder'
p228
VBarbara Richard and Timothy Ryan
p229
sS'B.W. Cooper'
p230
VLafitte
p231
sS'Jim Purcell'
p232
Vthe state Commissioner of Higher Education
p233
sS'Mary Ellen Roy'
p234
Va New Orleans-based lawyer
p235
sS'Lee Reid'
p236
Van attorney for the school
p237
sS'Mark Davis'
p238
g6
sS'Mark Andry'
p239
VDeputy
p240
sS'Carlos Lazarus'
p241
Vschool money
p242
sS'Lockett'
p243
Vhttp://farm3.static.flickr.com/2309/2075702991_36c7076f26.jpg
p244
sS'Dana Peterson'
p245
VRSD deputy superintendent for external affairs
p246
sS'Latoya Cantrell'
p247
VCouncilwoman
p248
sS'Donovan Livaccari'
p249
Vattorney for the Fraternal Order of Police
p250
sS'Barry Ivey'
p251
VR-Central House Bill 507
p252
sS'Joe Lopinto'
p253
VRep.
p254
sS'John Kennedy'
p255
Vstate Treasurer
p256
sS'Gustav'
p257
Vhurricanes
p258
sS'Dahme Bolden'
p259
Vboard member
p260
sS'Goodwin'
p261
Va longtime employee at the jail
p262
sS'Sam Joel'
p263
Vdirector of research for Mayor Mitch Landrieu
p264
sS'Shaun Donovan'
p265
VHUD Secretary
p266
sS'Marc Ehrhardt'
p267
g6
sS'James Hilburn'
p268
Van attorney for the state corrections department
p269
sS'Vaughn Fauria'
p270
g6
sS'Lorin Crenshaw'
p271
Vformer vice president
p272
sS'Duane Drucker'
p273
VDavid Napoleon John Wettermark and Mike Lappa
p274
sS'Julius Kimbrough'
p275
Vleader
p276
sS'Tim Gray'
p277
VBoard chair
p278
sS'Stephen Street'
p279
VLouisiana Inspector General
p280
sS'Susan Jurkunas'
p281
Vsystems accountability officer for Choice schools
p282
sS'Meyer'
p283
VGeneral
p284
sS'Claude Schlesinger'
p285
Vattorney
p286
sS'Norris Henderson'
p287
Vcoalition member
p288
sS'Nicholas Richards'
p289
Va sergeant in the inspection division
p290
sS'Roger Ogden'
p291
Vboard member
p292
sS'John Jones Jr.'
p293
Vvice chairman
p294
sS'Ed Graf'
p295
Vboard member
p296
sS'Joyous Von Buskirk'
p297
Vone of the authors of Lycees charter
p298
sS'Forest Bradley-Wright'
p299
g6
sS'Lopinto'
p300
g6
sS'Patty Glazer'
p301
VSchool
p302
sS'Thomas Arceneaux'
p303
Va recently deceased employee of the RSD
p304
sS'Bernadette DSouza'
p305
g6
sS'Austin Badon'
p306
Vstate Rep.
p307
sS'Kathy Spurlock'
p308
VThe News-Stars editor
p309
sS'Nick Felton'
p310
Vpresident of the New Orleans Firefighters Association
p311
sS'Neeta Boddapati'
p312
VRSD project manager in services and operations
p313
sS'Hunter Hurst'
p314
g6
sS'Nancy Shoemaker'
p315
Vmember
p316
sS'Betty Washington'
p317
Va leader of the Carver alumni group
p318
sS'Karran Harper Royal'
p319
g6
sS'Bill Hines'
p320
Va copy editor at The Times-Picayune
p321
sS'Don Briggs'
p322
g6
sS'Daniel OConnell'
p323
Vdirector of finance and operations
p324
sS'Donald Pate'
p325
VDenise Williams and Brian K. Richburg
p326
sS'Chip Groat'
p327
Vpresident of the institute
p328
sS'Essence Harris'
p329
Vmember
p330
sS'Madele S. Early'
p331
VPrincipal
p332
sS'Stacy Head'
p333
VCouncilwoman
p334
sS'Charles Rice'
p335
Vboard president for the 2010-2011 school year
p336
sS'Matt Segraves'
p337
Vpolicy manager at Tulane Universitys Cowen Institute
p338
sS'Julie Lause'
p339
g6
sS'Marlon Ford'
p340
VBoard members Helen Berrigan
p341
sS'Michael Ripski'
p342
g6
sS'Alexander'
p343
VKing
p344
sS'Richard Ross'
p345
Vhttp://lensnola.wpengine.netdna-cdn.com/wp-content/uploads/2015/05/OPP_1395-771x514.jpg
p346
sS'Christine Dabney'
p347
g6
sS'Shelia Sundar'
p348
Va literacy specialist
p349
sS'Skip LaMothe'
p350
g6
sS'Jessie Hoffman'
p351
Vinmate
p352
sS'Durrell Laurent'
p353
Vinsurance and real-estate agent Democrat
p354
sS'Denise Williams'
p355
Vmembers
p356
sS'Calvin Johnson'
p357
Vformer chief judge of Criminal District Court
p358
sS'SusanKrinsky'
p359
Vtreasurer
p360
sS'Kristen Lozada Morgan'
p361
VChief Operating Officer
p362
sS'Craig'
p363
g6
sS'Michael Higgins'
p364
Vattorney
p365
sS'Cliff Palmer'
p366
VLaMATS director
p367
sS'Jim Huger'
p368
Vpresident of the Choice Foundation board
p369
sS'Arthur Smith'
p370
g6
sS'Kwame Smith'
p371
g6
sS'Andrew Abrams'
p372
Vboard chair
p373
sS'Alison Hartman'
p374
Vco-chair of FirstLines governance committee
p375
sS'Patton St. Mike Pinkerton'
p376
Va volunteer who is helping the school
p377
sS'Paula Griffin'
p378
Valso a parent
p379
sS'Timothy Rusnak'
p380
VDr.
p381
sS'Amy George Hirons'
p382
Vparent of a Lycee student
p383
sS'Williams'
p384
VNew Beginnings staff.Deborah
p385
sS'Kathy Riedlinger'
p386
Vthe schools chief executive officer Kathy
p387
sS'Charles R. Drew Elementary'
p388
VDr.
p389
sS'Gary Smith'
p390
VSen.
p391
sS'Gisele Schexnider'
p392
VCEO
p393
sS'Karen Wells Roby'
p394
VJudge
p395
sS'Stephen Estopinal'
p396
Vtreasurer of the Flood Protection Authority board
p397
sS'Henry Burns'
p398
VR-Houghton
p399
sS'Monica Edwards'
p400
Vvice chair
p401
sS'Martha Landrum'
p402
g6
sS'C.J. Bower'
p403
VCrescent Leadership Academys chief financial officer
p404
sS'Eades Hogue'
p405
VAttorney
p406
sS'Kamala Baker-Jackson'
p407
Vthe director of technology integration
p408
sS'Henry Glover'
p409
Van Algiers man
p410
sS'Howard Herbert'
p411
VNew Orleans Demolition
p412
sS'Chris Guilbeaux'
p413
Va state emergency official
p414
sS'Will Kulick'
p415
Vboard treasurer
p416
sS'Douglas Baker'
p417
Va Division of Administration spokesman
p418
sS'Tiffany Robbins'
p419
Van accountant
p420
sS'Ben Allen'
p421
VStephen Rosenthal
p422
sS'Dickie Brennan'
p423
Va prominent local restaurant owner
p424
sS'DJuan Hernandez'
p425
VACSA board member
p426
sS'Sidney Garmon'
p427
g6
sS'Sarah Stern'
p428
Vthe schools director of data and assessments
p429
sS'Susie Morgan'
p430
VU.S. District Court Judge
p431
sS'Daniel Schwartz'
p432
Vthe Micah Projects executive director
p433
sS'Doug Guidry'
p434
Vthe schools business manager
p435
sS'Joel Robideaux'
p436
VR-Lafayette
p437
sS'Sandy Levy'
p438
g6
sS'Merritt Landry'
p439
VMarigny homeowner
p440
sS'Frank Donze'
p441
Vcommunications director for the Audubon Nature Institute
p442
sS'Christopher Kennedy'
p443
Va senior at the school
p444
sS'Ken Ducote'
p445
VFacilities manager
p446
sS'Ken Cuccinelli'
p447
Vthe Republican candidate for governor
p448
sS'Sonja Richard'
p449
Vlead custodian
p450
sS'Washington'
p451
VMr.
p452
sS'Richard Mills'
p453
VU.S. Marines commander
p454
sS'Lisa Daggs'
p455
Vboard member
p456
sS'Kyle Plotkin'
p457
VJindals director of communications
p458
sS'Susan Norwood'
p459
Vthe chairman of the Collegiate Academies board
p460
sS'James Bean'
p461
VNew member
p462
sS'Jackson'
p463
VAFL-CIO Housing Investment Trust officerTessa
p464
sS'Jack Davis'
p465
Vjournalist
p466
sS'Cifford Favrot'
p467
Va member of the boards finance committee
p468
sS'Cedric Floyd'
p469
g6
sS'Michael Richard'
p470
Van ex-officio board member discussedschool leader goals
p471
sS'Cathy Pierson'
p472
g6
sS'Aviva Le'
p473
Vthe schools director of facilities
p474
sS'Barry Landry'
p475
Va spokesman for Louisianas department of education
p476
sS'Kristen Lozada'
p477
Vthe schools chief operating officer
p478
sS'Betty Coulon'
p479
VColumbia University
p480
sS'Kristen Ponthier'
p481
Vmembers
p482
sS'John Broussard'
p483
VCharles Petrey
p484
sS'Krentel'
p485
VEricksen
p486
sS'John Harrington'
p487
Vcurrently the chief in St. Paul Minnesota
p488
sS'Justine Szymala'
p489
Vteachers
p490
sS'Linda Brown'
p491
Vcompliance officer
p492
sS'Bobby Jindal'
p493
VGov.
p494
sS'Courtney Taylor'
p495
VEnvironmental Defense Fund Fox
p496
sS'Roelof Stuurman'
p497
g6
sS'William Hines'
p498
Vboard spokesman
p499
sS'Steven Serio'
p500
Va local attorney
p501
sS'Carol Asher'
p502
Vthis years board chairwoman
p503
sS'Emily Thomas'
p504
Vresources director
p505
sS'Allen Square Jr.'
p506
Vthe citys chief information officer
p507
sS'Stephen Crim'
p508
VTransport for NOLA
p509
sS'Brian McCarthy'
p510
Vthe NFLs vice president of communications
p511
sS'Jecklin'
p512
VCo-Principals
p513
sS'Michelle Brown'
p514
Vboard member
p515
sS'Gary Ostroske'
p516
VBoard members Joseph Cao
p517
sS'Sal Perricone'
p518
VAssistant U.S. Attorney
p519
sS'Robert Harvey'
p520
Vattorney
p521
sS'Wesley Bishop'
p522
VD-New Orleans
p523
sS'Mireille Rabat'
p524
Vhttp://lensnola.wpengine.netdna-cdn.com/wp-content/uploads/2013/05/Rabate-1-e1368200123743-140x140.jpg
p525
sS'Tommie Vassel'
p526
Vaccountant for the Criminal District Court
p527
sS'Mohamed'
p528
VChina
p529
sS'Bryan Collins'
p530
Vdeputy
p531
sS'Rob Verchick'
p532
Venvironmental law professor at Loyola University
p533
sS'George Ricks'
p534
Vpresident of the Save Louisiana Coalition
p535
sS'Delta Dawn'
p536
Vwhats that flower you have
p537
sS'Judith Dangerfield'
p538
VNew Orleans board members
p539
sS'Keith Jarrett'
p540
Van attorney representing Shell
p541
sS'Alice Parkerson'
p542
VBoard members Elizabeth Rhodes
p543
sS'John White'
p544
VSuperintendent
p545
sS'Justin Venette'
p546
Van off-duty Tulane University Police officer
p547
sS'Tiffany Hardrick'
p548
Vschool leaders
p549
sS'LaurenJacobsen'
p550
Va member of the Governance Committee
p551
sS'Miriam Aukerman'
p552
g6
sS'Raymond Laborde'
p553
Va political elder statesman
p554
sS'Claudia Kent'
p555
Vdirector of finance
p556
sS'Alan Boxberger'
p557
g6
sS'Kristen Palmer'
p558
Vcandidates
p559
sS'Bobbie Thomas'
p560
Vthe grandmother of three Crocker students
p561
sS'Tony Taffaro'
p562
Va teacher with a business background
p563
sS'Carl Indest'
p564
g6
sS'Adams'
p565
VMs.
p566
sS'Andrew Seaman'
p567
g6
sS'Kenneth Lay'
p568
VEnron CEO
p569
sS'John Carmouche'
p570
g6
sS'I. Lewis Libby Jr.'
p571
Vformer top aide
p572
sS'Anthony Parker'
p573
VAlicia
p574
sS'Lyce Franais'
p575
Vcharter school
p576
sS'Kurt Weigle'
p577
g6
sS'Bob Bardy'
p578
Vthe NOPDs deputy superintendent of operations
p579
sS'Amy George-Hirons'
p580
Vparent of a Lycekindergartener
p581
sS'Holmes'
p582
VMr.
p583
sS'Dean Blanchard'
p584
Va resident of Grand Isle
p585
sS'Lyce'
p586
Va French-immersion school in its second year
p587
sS'Susanne Jernigan'
p588
Vattorney
p589
sS'Liz Cumming'
p590
Vattorney
p591
sS'Oliver Wise'
p592
g6
sS'Walter Flower'
p593
g6
sS'Rogers Pope'
p594
VR-Denham Springs
p595
sS'Bush'
p596
VJewel
p597
sS'Kimbraugh'
p598
Vboard member
p599
sS'Lindsey Moore'
p600
VMartin Luther King High School principal
p601
sS'Allan Kanner'
p602
g6
sS'Danny Martiny'
p603
VState Sen.
p604
sS'Eileen Williams'
p605
Vthe school principal
p606
sS'Ed Quatrevaux'
p607
VInspector General
p608
sS'Akron Davis'
p609
VOfficer
p610
sS'Joe Rua'
p611
g6
sS'Cedric Richmond'
p612
VState Reps.
p613
sS'Fred Mills'
p614
VR-New Iberia
p615
sS'Patrick Williams'
p616
VState Rep.
p617
sS'Bernard Charbonnet'
p618
VLibrary Board Chairman
p619
sS'Gina Dupart'
p620
VDenise Williams and Brian K. Richburg Sr.
p621
sS'Brett Geymann'
p622
VR-Lake Charles
p623
sS'Stephen Rosenthal'
p624
Vchairman of the finance committee
p625
sS'Lisa Hudson'
p626
Vthe citys personnel director
p627
sS'Darrin Cook Sr.'
p628
Vson-in-law
p629
sS'Benjamin Button'
p630
g6
sS'Troy Patterson'
p631
VDr.
p632
sS'Bagot'
p633
Vmembers
p634
sS'Kathy Carlin'
p635
Vmembers
p636
sS'Ellen Bankston'
p637
VAssistant Principal
p638
sS'Mike Foster'
p639
Vthe states last Republican governor
p640
sS'Jeffrey Rouse'
p641
VDr.
p642
sS'-RSB- Marta -LSB- Jewson'
p643
VLens reporter
p644
sS'Harold Clay'
p645
Voperations manager at Edna Karr
p646
sS'Donna Klein'
p647
Vpast board chairwoman
p648
sS'Carmelite Lofton'
p649
Vschool services
p650
sS'Colleen Mackay'
p651
Vdirector of human capital and development
p652
sS'Carol Allen'
p653
g6
sS'Mickey Landry'
p654
Vthe principal at Choice Foundations flagship school
p655
sS'Steve Winham'
p656
VSaid
p657
sS'Dedra Johnson'
p658
g6
sS'Mardi Gras'
p659
VFeb. 21
p660
sS'Jeff Winn'
p661
VCapt.
p662
sS'Joe May'
p663
g6
sS'Alfre Woodard'
p664
Va member of the presidents committee
p665
sS'Sheppard Mullin'
p666
Vthe Justice Departments choice
p667
sS'Carol McCall'
p668
Vmembers
p669
sS'Andy Kopplin'
p670
VChief Administrative Officer
p671
sS'Pam Laborde'
p672
Vspokeswoman for the states Department of Corrections
p673
sS'Norman Foster'
p674
Vchief financial officer for the Landrieu administration
p675
sS'Eric Bolling'
p676
VFox Business Networks
p677
sS'Chris ONeill'
p678
g6
sS'Ed Blakely'
p679
Vrecovery czar
p680
sS'Roy Austin Jr.'
p681
VDeputy Assistant Attorney General
p682
sS'Anthony Carter'
p683
Vthe director of finance and administration
p684
sS'Frank Buckley'
p685
Van alumnus of John McDonogh
p686
sS'Keith Bartlett'
p687
Vthe schools chief executive officer
p688
sS'Peter J. Fos'
p689
VUNO President
p690
sS'Raven Murthil'
p691
VHammonds safety manager
p692
sS'Hughes'
p693
g6
sS'Ostberg'
p694
VNETs director
p695
sS'Liz Reyes'
p696
Vpresenter of the noon show
p697
sS'Jean Montes'
p698
Vthe schools board chairman since last April
p699
sS'David Garland'
p700
Vboard president
p701
sS'Cherrell Simms'
p702
Va lawyer in the City Attorneys Office
p703
sS'Baum'
p704
VMr.
p705
sS'Deborah Gordon'
p706
g6
sS'Garda'
p707
Va lawyer
p708
sS'Kristina Kent'
p709
Vboard president
p710
sS'David Waggonner'
p711
Van architect and co-author of the plan
p712
sS'Lee Pryor'
p713
VNew board member
p714
sS'Linda Tran'
p715
VResearch leader
p716
sS'Lucas Diaz'
p717
Van organizer within the Hispanic community
p718
sS'Juanita Chenevert'
p719
VSister
p720
sS'Francis Cascio'
p721
VTreasurer
p722
sS'Jason Redmond'
p723
VTreasury spokesman
p724
sS'Wylene Sorapuru'
p725
Vthe chief academic officer for ACSA
p726
sS'Shirley Laska'
p727
g6
sS'Caroline Lampard'
p728
Vthe judges sister-in-law
p729
sS'Michael Walsworth'
p730
Vstate Sen.
p731
sS'Ashton Ryan'
p732
Vfinance chairman
p733
sS'Todd Purvis'
p734
Vschool leader at KIPP Central City Primary
p735
sS'Missy Forcier'
p736
VHarneys chief administrative officer
p737
sS'Wayne James'
p738
Vthe head of Wayne James and Associates
p739
sS'Steve Carter'
p740
VCommittee Chairman
p741
sS'S. Robertson St. Jonathan Bertsch'
p742
VKIPPs director of advocacy
p743
sS'Billy Broussard'
p744
g6
sS'Manny Chevrolet Bruno'
p745
VEntertainer
p746
sS'Avis Flynn'
p747
Va fourth-grade math teacher
p748
sS'Dale Kildee'
p749
VRep.
p750
sS'Horne'
p751
VDeb CottonandC.W
p752
sS'Rachel Watts'
p753
Vthe Montessori Vice-President for Audubons Parent-Teacher Organization
p754
sS'Bryan Barrios'
p755
VArchon CEO
p756
sS'Delano Ford'
p757
Vplan
p758
sS'Frank Joshua'
p759
Va graduate of the class of 1980
p760
sS'Allison Bowler'
p761
Vthe chief financial officer
p762
sS'Rita Benson LeBlanc'
p763
VSaints executive
p764
sS'Greg Swanson'
p765
VEnglish teacher
p766
sS'Shirley Monastra'
p767
Va charter school consultant
p768
sS'Darryl Brown'
p769
g6
sS'Jim Raby'
p770
VMonica Edwards and Kleban
p771
sS'Sharon Hyde-Augillard'
p772
VMembers
p773
sS'Andrew Cox'
p774
g6
sS'Bob Turner'
p775
Vregional director of the flood protection authority
p776
sS'Tim Rusnak'
p777
VCEO and principal
p778
sS'Ann Sens'
p779
Vwife of Judge Paul Sens
p780
sS'Ray NaginNew Orleans'
p781
VLa.
p782
sS'Courtney Darby'
p783
Vseventh-grader
p784
sS'Mianca Winchester'
p785
Va master teacher at Crocker
p786
sS'Jay Zainey'
p787
VU.S. District Court Judge
p788
sS'James Garvey'
p789
VMembers
p790
sS'Debi Theobald'
p791
g6
sS'Chris Hines'
p792
VChief Operating Officer
p793
sS'Darryl Gissel'
p794
g6
sS'Janice A. Dupuy'
p795
VPrincipal
p796
sS'Daphne Glindmeyer'
p797
g6
sS'Tom Kitchen'
p798
VUNO Foundation representative
p799
sS'James L. Dennis'
p800
VJudges
p801
sS'Plinio Pavon'
p802
VNew Orleans freshman
p803
sS'Tracey Knight'
p804
VAssistant U.S. Attorney
p805
sS'Loretta Mince'
p806
Vmedia lawyer
p807
sS'Elizabeth Chaponot'
p808
VTheresa Picciano
p809
sS'Brandie Burris'
p810
g6
sS'F.H. Paschen'
p811
Vthe construction company
p812
sS'Marina Schoen'
p813
Valso new this year
p814
sS'Patricia Ventura'
p815
Va former Recovery School District charter schools
p816
sS'Dan OConnell'
p817
Vthe schools finance director
p818
sS'Wiley Ates'
p819
VHigh School Principal
p820
sS'Laura Lapeze'
p821
VChief Financial Officer
p822
sS'Herbert Dixon'
p823
Vstate Rep.
p824
sS'Richard P. Mills'
p825
VLt. Gen.
p826
sS'JVann Martin'
p827
VCapdaus principal
p828
sS'Jack Donahue'
p829
VR-Mandeville
p830
sS'Doug Finegan'
p831
Vtreasurer for the charter management organization
p832
sS'Stewart Gay'
p833
g6
sS'Maurice McMorris'
p834
g6
sS'James L. Hilburn'
p835
Va lawyer for the Department of Corrections
p836
sS'Marcel McGee'
p837
Vthe schools director of fund development
p838
sS'Sam Jones'
p839
VD-Franklin
p840
sS'Post Gustav'
p841
VMayor
p842
sS'Patrick Walsh'
p843
Vthe executive director of Charter Accountability
p844
sS'Bobby Delle'
p845
Vvice-president
p846
sS'Shawn Barney'
p847
Vmember
p848
sS'Nicole Boudreaux'
p849
VMember
p850
sS'Marc Bookman'
p851
g6
sS'Kenneth Feinberg'
p852
g6
sS'Tiffany Delcour'
p853
g6
sS'Bill Langenstein'
p854
Vboard member
p855
sS'Mark Martin'
p856
VLangston Hughes Academy school leader
p857
sS'Althea Bagneris'
p858
VMichael
p859
sS'DJ Johnson'
p860
Vscience and math instructional leader
p861
sS'Charlie Petrey'
p862
VChristiansen
p863
sS'Andrew Shahan'
p864
VPrincipal
p865
sS'Christine Mitchell'
p866
Vassistant principal Ellen Bankston
p867
sS'Jeremy Hunnewell'
p868
Vpresident of EMH Strategy
p869
sS'Kim Groves'
p870
g6
sS'Charles'
p871
VR-Lake
p872
sS'Eddie Williams'
p873
Vsupervisor of the federal agencys
p874
sS'Chris Bruno'
p875
VOrleans Parish Civil Court Judge
p876
sS'Benjamin Leger'
p877
g6
sS'Thomas Mickley-Doyle'
p878
VTeacher
p879
sS'Jack Bergman'
p880
VLt. Gen.
p881
sS'Kelley'
p882
VGuinns stewardship.Sheila
p883
sS'Michael Stone'
p884
Vchief external relations officer for New Schools
p885
sS'Jan Ferrell'
p886
Vvice president of the Coliseum Square Association
p887
sS'David Page'
p888
VDillard Universitys vice president of enrollment management
p889
sS'Tim Jackson'
p890
Vvice chairman
p891
sS'Camille Buras'
p892
VCriminal District Court Chief Judge
p893
sS'Mike Greer'
p894
Vthe schools financial officer
p895
sS'Mary Howell'
p896
g6
sS'George Brower'
p897
Van expert in tax-credit law
p898
sS'Kevin Fox Gotham'
p899
Vprofessor
p900
sS'Charles Hadey'
p901
Vtreasurer
p902
sS'Anderson Barker'
p903
Vchairman
p904
sS'Neil Riser'
p905
VSen.
p906
sS'Rose Peterson'
p907
Vdirector of the Eastbank Collaborative
p908
sS'Linda Launey'
p909
VPatterson
p910
sS'Meghan Parrish'
p911
g6
sS'Jerry Sneed'
p912
Vdeputy mayors
p913
sS'Andrea Thomas-Reynolds'
p914
Vthe schools new interim CEO
p915
sS'James Reiss'
p916
Vmembers
p917
sS'Ricardo Pineda'
p918
g6
sS'Stephen Stuart'
p919
g6
sS'Mitch Landrieus'
p920
VMayor-elect
p921
sS'Timothy Floyd'
p922
g6
sS'Matt Rufo'
p923
g6
sS'Howard Avnue'
p924
VNew Orleans
p925
sS'Joanna Sese'
p926
Vcoordinator of admissions and enrollment
p927
sS'Buddy Caldwell'
p928
VLouisiana Attorney General
p929
sS'Maurice Ruffin'
p930
VNew Orleans attorney
p931
sS'Lisa -RRB- Cox'
p932
Vschool nurse
p933
sS'John Schroder'
p934
VRep.
p935
sS'Greg Albrecht'
p936
g6
sS'Robin Gorman'
p937
VLake Forests operations manager
p938
sS'Nicole Payne-Jack'
p939
g6
sS'Kelly Schulz'
p940
g6
sS'Dear Friend'
p941
VCity Council
p942
sS'Ray Nagin'
p943
VNew Orleans Mayor
p944
sS'Pat Bryant'
p945
VThomas activist
p946
sS'Joseph Neary'
p947
VChief Operating Officer
p948
sS'Walker Hines'
p949
VD-New Orleans
p950
sS'Gary Huntley'
p951
g6
sS'Ed Blakley'
p952
Vhttp://farm4.static.flickr.com/3425/3376503820_7fce1c9b05.jpg
p953
sS'Dow Edwards'
p954
Vboard members
p955
sS'Gordie Dove'
p956
VR-Houma a strong Jindal ally
p957
sS'Tom Minello'
p958
VNational Oceanic
p959
sS'Bernie Pinsonat'
p960
Van analyst for Southern Media
p961
sS'Keith Amacker'
p962
VCapt.
p963
sS'Tom Harris'
p964
VDEQs administrator of remediation services
p965
sS'Michael Jackson'
p966
Vthe project architect
p967
sS'Jeff Nordstrom'
p968
g6
sS'Jean-Jacques Grandiere'
p969
Vgeneral director of Lycee Francais
p970
sS'David Powell'
p971
Vdirector of information technology
p972
sS'John W. Bergman'
p973
VLt. Gen.
p974
sS'Terry Landry'
p975
VRep.
p976
sS'Charmaine Robertson'
p977
Vthe schools principal
p978
sS'Minyard'
p979
Vcoroner
p980
sS'Linda Deegan'
p981
g6
sS'Blake Jones'
p982
Vmanaging partner of Scheuermann & Jones
p983
sS'Sharon Courtner'
p984
Vboard President
p985
sS'Naomi Martin'
p986
VThe Lens contributing writer |
p987
sS'Sharon Courtney'
p988
Vthis years vice-chairwoman
p989
sS'Danielle Bell'
p990
VThe Lensstaff writer
p991
sS'Coleman Ridley'
p992
Vmember
p993
sS'Erica Severan'
p994
g6
sS'Isaac'
p995
VHurricane
p996
sS'Kelly McBride'
p997
Va leading expert on journalistic ethics
p998
sS'Frank Hoffmann'
p999
VR-West Monroe a Ways and Means member
p1000
sS'Joe Daschbach'
p1001
Va former Lagniappe employee and education consultant
p1002
sS'Ryan Bennett'
p1003
Vboard president
p1004
sS'Pamela Mitchell'
p1005
Vthe press associations executive director
p1006
sS'Freret'
p1007
Vschools
p1008
sS'Lindsay Moore'
p1009
VKings principal and Craig principal Ora Wiley
p1010
sS'John KennedyKen Rodgers'
p1011
VstateTreasurer
p1012
sS'Ashe'
p1013
Vdont turn
p1014
sS'Blitch Knevel'
p1015
g6
sS'Sarah Comiskey'
p1016
VDirector of Communications
p1017
sS'Antonio Andrade'
p1018
Vparent
p1019
sS'Ronald Davis'
p1020
VBay area star
p1021
sS'Dan Lewis'
p1022
g6
sS'Sidney -RSB- Barthelemy'
p1023
VMayor
p1024
sS'Hunter Greene'
p1025
VR-Baton Rouge
p1026
sS'Ricky Mathews'
p1027
VTimes-Picayune Publisher
p1028
sS'Felicia Moran'
p1029
Va member of the advisory committee
p1030
sS'Adam Swensek'
p1031
Van assistant city attorney
p1032
sS'Courtney Bagneris'
p1033
Vthe citys interim risk manager
p1034
sS'Kevin Pearson'
p1035
VRep.
p1036
sS'David Capasso'
p1037
VDistrict A City Council challenger
p1038
sS'Jackie Clarkson'
p1039
VCouncilwoman
p1040
sS'Joseph Cao'
p1041
Vmembers
p1042
sS'Josh Densen'
p1043
Vhttp://lensnola.wpengine.netdna-cdn.com/wp-content/uploads/2015/04/Josh-Densen-Bricolage.png
p1044
sS'Bruce Gallassero'
p1045
g6
sS'Mary Brown'
p1046
VBoard member
p1047
sS'Whit Kling'
p1048
Vdirector of the Louisiana Bond Commission
p1049
sS'Bruce Gage'
p1050
Va psychiatrist
p1051
sS'Garnesha Crawford'
p1052
VLandrieu spokeswoman
p1053
sS'Melissa Forcier'
p1054
Vthe schools chief academic officer
p1055
sS'Ryan Frailich'
p1056
Vresources director
p1057
sS'Marvin Thompson'
p1058
Vprincipals
p1059
sS'Conde Monier'
p1060
g6
sS'Vance McAllister'
p1061
Va political newcomer
p1062
sS'Rachel Holman'
p1063
Vconsultant
p1064
sS'Beaconsfield Landry'
p1065
VLord
p1066
sS'David Rivera'
p1067
g6
sS'Sean Bruno'
p1068
VCPA
p1069
sS'Anthony Recasner'
p1070
Vdirectors of James Lewis Extension School
p1071
sS'Duris Holmes'
p1072
Vpresident of the board that oversees Franklin
p1073
sS'Shawne Favre'
p1074
Vfinance director
p1075
sS'Robert Jenkins'
p1076
Vcommittee member
p1077
sS'Jamar McKneely'
p1078
Vhead of Alice M. Harte Charter School
p1079
sS'Kelly McClure'
p1080
Va national director
p1081
sS'Andrew Yon'
p1082
VPresident of the Board
p1083
sS'Lynda Krupp'
p1084
g6
sS'Jen Walcott'
p1085
Vmembers
p1086
sS'Lee Hampton'
p1087
Vboard members Michael Bagot
p1088
sS'Ray Bolling'
p1089
Vliaison
p1090
sS'Sandra Wheeler Hester'
p1091
Vgadfly
p1092
sS'Lance Nowacki'
p1093
g6
sS'Dexter Fields'
p1094
VQuarter resident
p1095
sS'Nick Cali'
p1096
Vexecutive director of the levee district
p1097
sS'Sarah Bell'
p1098
Vp.m.
p1099
sS'Mtumishi St. Julien'
p1100
g6
sS'Tony Ligi'
p1101
VR-Metairie
p1102
sS'Lynn LeBeaud'
p1103
Vanother member of the citizens group
p1104
sS'Dane Ciolino'
p1105
VLoyola Law School professor
p1106
sS'James Aiken'
p1107
VDr.
p1108
sS'Michael Booker'
p1109
g6
sS'Kevis Louis'
p1110
VMcDonogh City Parks dean of students
p1111
sS'Tracy Mercadel'
p1112
Vdirector of site services
p1113
sS'Sassy Wheeler'
p1114
Vboard members
p1115
sS'Dottie Belletto'
p1116
Van ally of Mayor Mitch Landrieu
p1117
sS'Windi Brown'
p1118
Vmembers
p1119
sS'Larry Eustis'
p1120
VGranderson Walcott
p1121
sS'Gary Wells'
p1122
g6
sS'Melissa Jagers'
p1123
VBoard Treasurer
p1124
sS'Ed Blouin'
p1125
VDonovan DiLorenzo and Jerome Jordan
p1126
sS'James Logan'
p1127
Vtreasurer
p1128
sS'Cherie Lopez'
p1129
Vinterim treasurer
p1130
sS'James Hilburn Brady'
p1131
VCorrections attorney
p1132
sS'Jeffrey Henig'
p1133
VRSDs director of information and technology
p1134
sS'Ariella Cohen'
p1135
VThe Lens staff writer |
p1136
sS'CJ Bower'
p1137
g6
sS'Lorraine Slacks'
p1138
g6
sS'Chair Susan Guidry'
p1139
VCriminal Justice Committee
p1140
sS'Robert Johnson'
p1141
VState Rep.
p1142
sS'Danielle Hill'
p1143
Vlower school assistant principal
p1144
sS'Blake Pool'
p1145
g6
sS'Julie Langham'
p1146
VCol.
p1147
sS'Julie Walker'
p1148
Vboard candidate
p1149
sS'Chuck Kleckley'
p1150
VR-Lake Charles
p1151
sS'M. Fritz Gomila'
p1152
VTreasurer
p1153
sS'John Hope'
p1154
VBoard members Steve Barr
p1155
sS'Belinda Cambre'
p1156
VSecretary
p1157
sS'Tulanes Oliver Houck'
p1158
g6
sS'Pete Rodway'
p1159
VDevelopment Director
p1160
sS'Isaiah Simms'
p1161
Va scholar athlete on Miller-McCoys football team
p1162
sS'Darius Munchak'
p1163
Vdirector of finance and operations
p1164
sS'Toler St.'
p1165
VHarahan
p1166
sS'Sheppard'
p1167
VWashington
p1168
sS'Bridget Dinvaut'
p1169
VBoard Chairwoman
p1170
sS'Donald Marshall'
p1171
Vsheriffs deputy
p1172
sS'Ulysses Gene Thibodeaux'
p1173
Vhttp://lensnola.wpengine.netdna-cdn.com/wp-content/uploads/2014/08/ulysses-gene-thibodeaux.jpg
p1174
sS'Joshua Perry'
p1175
g6
sS'Hilda Young'
p1176
Vthe Friends of King board president
p1177
sS'Teddi -RRB- Locke'
p1178
VTimothy Jackson
p1179
sS'Martin dLaurel'
p1180
VMember
p1181
sS'Jerel Giarrusso'
p1182
g6
sS'Malcomb McLetchie'
p1183
Vtax consultant
p1184
sS'Rita LeGrand'
p1185
Va neighborhood activist who
p1186
sS'Jean-Claude Brunet'
p1187
Vthe French consul general in New Orleans
p1188
sS'Arthur Young'
p1189
V~
p1190
sS'Harry Rosenberg'
p1191
VU.S. Attorney
p1192
sS'Darleen Mipro'
p1193
g6
sS'Steve Costa'
p1194
Vcoach
p1195
sS'John H. Lowery'
p1196
VDr.
p1197
sS'Carlos Williams'
p1198
VDistrict candidate
p1199
sS'Lisa Tropez Arceneaux'
p1200
VBoard members
p1201
sS'Sarah Montes'
p1202
g6
sS'Neisha Reilly'
p1203
Vthe schools former guidance counselor
p1204
sS'Stefan LoBuglio'
p1205
g6
sS'Askala Harris'
p1206
VGwathmey Gomila
p1207
sS'Melanie Pittman'
p1208
g6
sS'Bev Nichols'
p1209
Vhttp://lensnola.wpengine.netdna-cdn.com/wp-content/uploads/2014/04/Nichols-6.2010-e1396365055331-336x421.jpg
p1210
sS'Wheeler Hester'
p1211
VSandra
p1212
sS'Anna Koehl'
p1213
Vmember
p1214
sS'Jon Wool'
p1215
Vdirector of the New Orleans Vera Institute
p1216
sS'Landry'
p1217
Vstory
p1218
sS'Bruce Greenstein'
p1219
VHospitals Secretary
p1220
sS'Ron Midkiff'
p1221
Va former Einstein school administrator
p1222
sS'Glen Holt'
p1223
Vsuperintendent of the Youth Study Center
p1224
sS'Indest'
p1225
VMr.
p1226
sS'Mike Dunn'
p1227
VKIPPs Chief Financial Officer
p1228
sS'Albert Joey Richard'
p1229
g6
sS'Justin Augustine'
p1230
g6
sS'Bob Stefani'
p1231
Vsecretary
p1232
sS'Lee Caston'
p1233
Vpresident
p1234
sS'Troy Constance'
p1235
VDeputy District Engineer
p1236
sS'Carl Redman'
p1237
Vexecutive editor of The Advocate
p1238
sS'Carney'
p1239
Vsearch consultant
p1240
sS'Michael DiResto'
p1241
Vthe spokesman for Jindals Division of Administration
p1242
sS'Cheron Brylski'
p1243
g6
sS'Carolyn Chandler'
p1244
VBoard members Anna Burrell
p1245
sS'Marcellus Grace'
p1246
VDr.
p1247
sS'Leon Cannizzaro Michael Cowan'
p1248
VSafe Streets/Strong Communities Municipal
p1249
sS'Tor Tornqvist'
p1250
g6
sS'Jody Amedee'
p1251
VSen.
p1252
sS'Nadirah Mateen'
p1253
Va teacher at the school since 2008
p1254
sS'Brett Bonin'
p1255
Vformer member of Orleans Parish School Board
p1256
sS'Troave Profice'
p1257
Vmanager of school performance with the RSD
p1258
sS'Kirby Goidel'
p1259
g6
sS'Stephen Boyard Jr.'
p1260
VBoard member
p1261
sS'Kelly Brown'
p1262
VCommissioner
p1263
sS'Chunlin Leonhard'
p1264
g6
sS'Max Baucus'
p1265
VSenate Finance Committee Chairman Sen.
p1266
sS'Kirsten Feil'
p1267
VFirstLines director of academic support
p1268
sS'Gail Armant'
p1269
VArmant
p1270
sS'Michael Peneguy'
p1271
Vcommittee member
p1272
sS'Buster McKenzie'
p1273
VSouthern Medias pollster
p1274
sS'Dan Coleman'
p1275
Vsearch for the missing river
p1276
sS'Thomas Rish'
p1277
g6
sS'Walt Leger'
p1278
VD-New Orleans
p1279
sS'Andrew Lorenz'
p1280
Va law student
p1281
sS'Robert Corvo'
p1282
VWalker teacher
p1283
sS'Stephen Boyard'
p1284
VCrocker board members
p1285
sS'Grant Schlueter'
p1286
VGusmans bond counsel
p1287
sS'Chris Lozier'
p1288
Vofficer
p1289
sS'Jimmy S. Fox III'
p1290
g6
sS'Monroe'
p1291
VR-West
p1292
sS'Jean Monts'
p1293
VDr.
p1294
sS'Jolene Elberth'
p1295
Va coordinator for the Workers Center
p1296
sS'C. Hayne Rainey'
p1297
Vspokesman
p1298
sS'Kyle Shelly'
p1299
VNeighborhood Engagement liaison
p1300
sS'Fran Trujillo'
p1301
VMcDonogh 42s principal-to-be
p1302
sS'Lona Hankins'
p1303
VRSDs director of capital improvements
p1304
sS'Ron Mason'
p1305
Vthe president of the Southern University System
p1306
sS'Ileana Ledet'
p1307
Vspokeswoman for the state Department of Education
p1308
sS'Stanley Barre'
p1309
g6
sS'Kurt Englehardt'
p1310
VSection N District Court Judge
p1311
sS'George Cavignac'
p1312
Vthe councils chairman
p1313
sS'Mary Carstens'
p1314
Vcoordinator of admissions and enrollment
p1315
sS'Derek Huston'
p1316
g6
sS'Shailendra Baghel'
p1317
Va certified public accountant
p1318
sS'Yulon James'
p1319
Vthe girlfriend of Phipps promoter
p1320
sS'Patricia Wright'
p1321
Va spokeswoman for BP
p1322
sS'Dominique Harris'
p1323
VbeyondNOLAs executive director
p1324
sS'Elizabeth Jeffers'
p1325
g6
sS'H.V. Nagendra'
p1326
Vfounder of the Central Carrollton Network
p1327
sS'Pres Kabacoff'
p1328
Vhttp://lensnola.wpengine.netdna-cdn.com/wp-content/uploads/2013/09/pres-on-canal-3-727-carousel.jpg
p1329
sS'Ronal Serpas'
p1330
VPolice Superintendent
p1331
sS'Lauren Pigeon'
p1332
VKathy Litchfield Charles Gasho and Donnica Conway
p1333
sS'Carol McCree'
p1334
VWashington
p1335
sS'Kathryn Broussard'
p1336
Va member of the boards finance committee
p1337
sS'Alexandra Norton'
p1338
Va top Landrieu aide
p1339
sS'Vanessa Gueringer'
p1340
VWard activist
p1341
sS'Grant'
p1342
VCentury
p1343
sS'Monica Candal'
p1344
Vboard member
p1345
sS'Brod Bagert'
p1346
g6
sS'Jackson Knowles'
p1347
Vvice president of the board
p1348
sS'Markowitz'
p1349
Verald
p1350
sS'Antoine Barriere'
p1351
VRev.
p1352
sS'Patricia Perkins'
p1353
VPrincipal
p1354
sS'Robert Jones'
p1355
VTraffic Court Judge
p1356
sS'Aaliyah Brown'
p1357
g6
sS'Gina McCarthy'
p1358
VNew Orleans Advocate EPA administrator
p1359
sS'Donald Dymer'
p1360
VCEO of SingleSource
p1361
sS'John Gaudry'
p1362
Vchief financial officer
p1363
sS'Ashleigh Bergeron'
p1364
Vmembers
p1365
sS'Mireille Rabate'
p1366
Va school administrator from San Francisco
p1367
sS'Regina Barrow'
p1368
VState Rep.
p1369
sS'Bob Butler'
p1370
VIndependent Journalism
p1371
sS'Shana Turner'
p1372
Vmother of a pre-K student
p1373
sS'McKinley Phipps Sr.'
p1374
VPhipps father
p1375
sS'Raymond Burkart'
p1376
Va spokesman for the association
p1377
sS'Silva'
p1378
Vfirm
p1379
sS'Laney French'
p1380
Vschool administrator
p1381
sS'Kenneth Polite'
p1382
VChair
p1383
sS'Marlin Gusman'
p1384
VSheriff
p1385
sS'Andrew Wisdom'
p1386
Vtreasurer
p1387
sS'Joe Waguespack Sr.'
p1388
VCapt.
p1389
sS'Patrick Dobard'
p1390
VRecovery School District superintendent
p1391
sS'Brian Young'
p1392
Vassistant principal
p1393
sS'Horton'
p1394
VMembers
p1395
sS'Ali Gaffey'
p1396
Vthe literacy leader
p1397
sS'Trayvon Martin'
p1398
g6
sS'Kisa Holmes'
p1399
g6
sS'Hynes'
p1400
Van Orleans Parish School Board charter
p1401
sS'Caroline Roemer-Shirley'
p1402
VPublic Charter Schools Executive Director
p1403
sS'Loria Joseph'
p1404
g6
sS'Floyd'
p1405
g6
sS'Jim Morris'
p1406
VRep.
p1407
sS'Barbara Mollere'
p1408
g6
sS'Bob Marshall'
p1409
VLens
p1410
sS'Aaron Mackey'
p1411
VPressBut
p1412
sS'Elise Adams'
p1413
VGrants facilitator
p1414
sS'Sonya Duh'
p1415
Vdirector of LoyolasSchool of Mass Communication
p1416
sS'Joseph Dunn'
p1417
Vthe director of Council
p1418
sS'Jim Harrison'
p1419
VR-Gray
p1420
sS'Wylie Ates'
p1421
Vhigh school principal
p1422
sS'David Waggoner'
p1423
g6
sS'Phong Tran'
p1424
VToranto
p1425
sS'John Driscoll'
p1426
VCorporate Planning Resources
p1427
sS'Marshall'
p1428
Vhis loyalty to the City
p1429
sS'Joel Loeffelholz'
p1430
Vproperty owner Henry Rosenblat
p1431
sS'Jessica Kudji'
p1432
Vthe networks new grants manager
p1433
sS'Sandra Rockwell'
p1434
Va middle school teacher at Hynes
p1435
sS'Rashida Govan'
p1436
g6
sS'Vic Richard'
p1437
g6
sS'Aesha Rasheed'
p1438
Vthe boards president
p1439
sS'Mark Peneguy'
p1440
Va non-voting Wisner heir
p1441
sS'DeLano Ford'
p1442
g6
sS'Ron Brysinski'
p1443
VFEMA contractor
p1444
sS'Alexina Medley'
p1445
VPrincipal
p1446
sS'Iftikhar Ahmad'
p1447
Vaviation director at Louis Armstrong International Airport
p1448
sS'Billy Hatchett'
p1449
VJohn Broussard
p1450
sS'Matt Davis'
p1451
VThe Lens staff writer |
p1452
sS'Jerome Jordan'
p1453
VBoudin member
p1454
sS'Jerome Zeringue'
p1455
g6
sS'Dan Henderson'
p1456
Vmembers Jacqueline Simon
p1457
sS'Timothy S. Jost'
p1458
VLee law professor
p1459
sS'Bob Rhoden'
p1460
g6
sS'Brian Richburg'
p1461
Vboard representatives
p1462
sS'Rafael Gang'
p1463
g6
sS'Katie Schwartzmann'
p1464
g6
sS'Pierre A. Capdau Elementary'
p1465
Vthe networks first school
p1466
sS'Alex McCorquodale'
p1467
g6
sS'Julie Stokes'
p1468
VState Rep.
p1469
sS'Mark Moseley'
p1470
VLens opinion columnist
p1471
sS'Jindal'
p1472
Va former fan of Common Core
p1473
sS'Hampton'
p1474
VwereLee
p1475
sS'Marlene Wade'
p1476
Vadvisor
p1477
sS'Phil Stelly'
p1478
Va spokesman for Gusman
p1479
sS'Lance Harris'
p1480
VRep.
p1481
sS'Rob Couhig'
p1482
g6
sS'Cora Charles'
p1483
Vtreasurer
p1484
sS'Michelle Thomas'
p1485
Vanother deputy mayor
p1486
sS'Kyle Keegan'
p1487
Vthe Baton Rouge attorney who filed it
p1488
sS'Keith Barney'
p1489
VIda Richard Terri Franklin and Gretchen Bradford
p1490
sS'Adolph Klundt'
p1491
Vapplicant
p1492
sS'Ross Anderson'
p1493
VRoss
p1494
sS'Bernell Patterson'
p1495
VAkili parent
p1496
sS'Marty Collins'
p1497
VGatehouses president and chief executive officer
p1498
sS'James Carter'
p1499
Vthe mayors crime guru
p1500
sS'Kristin Gisleson Palmer'
p1501
VCouncilwoman
p1502
sS'Anthony Doty'
p1503
Vboard president
p1504
sS'Adam Marshall'
p1505
g6
sS'Chris Schultz'
p1506
Vone of Launch Pads three partners
p1507
sS'Elizabeth Simpson'
p1508
VVeras project director
p1509
sS'Howard Mielke'
p1510
VDr.
p1511
sS'MacPhaille'
p1512
Vthe boards current secretary
p1513
sS'Nanita Bailey'
p1514
g6
sS'Steve Gill'
p1515
g6
sS'Bill Schultz'
p1516
Vconsultant
p1517
sS'Jay Guillot'
p1518
VDistrict member
p1519
sS'Samette Brown'
p1520
VNew Beginnings chief executive officer
p1521
sS'Corrente'
p1522
Vanother site
p1523
sS'Kelly Butler'
p1524
g6
sS'Martin Luther King'
p1525
VJr.
p1526
sS'Jaimme Collins'
p1527
Van attorney for Adams & Reese
p1528
sS'Bob Brown'
p1529
g6
sS'Florence Andre'
p1530
Vcommunity leader
p1531
sS'Hema Banangada'
p1532
Vthe boards treasurer
p1533
sS'Dan Blade Morrish'
p1534
VR-Jennings
p1535
sS'Alvin Meister'
p1536
Van attorney
p1537
sS'Harriet Tubman'
p1538
Vthe Crescent City Schools board of directors
p1539
sS'Charles Petrey'
p1540
Vmember
p1541
sS'Troy Duhon'
p1542
Vthe owner of Toyota/Scion of New Orleans
p1543
sS'Chad Broussard'
p1544
Vprincipal at the high school
p1545
sS'Susan Hutson'
p1546
Vthe police monitor
p1547
sS'Patrick Bell'
p1548
Va psychology Ph.D. student at Tulane University
p1549
sS'Benjamin Marcovitz'
p1550
Vthe chief executive officer of Collegiate Academies
p1551
sS'Lusher'
p1552
Vtest
p1553
sS'Charley Petrey'
p1554
g6
sS'Matthew Framer'
p1555
Vher chief of staff
p1556
sS'Landrieu'
p1557
VMayor
p1558
sS'Jon Johnson'
p1559
VCouncilman
p1560
sS'Ahn Joseph Cao'
p1561
VU.S. Rep.
p1562
sS'Joseph Daschbach'
p1563
Van educational consultant
p1564
sS'John Hiser'
p1565
Vnow the high school CEO
p1566
sS'Pat Watson'
p1567
VRev.
p1568
sS'Ryan Ruyle'
p1569
g6
sS'Tucker Crawford'
p1570
g6
sS'Joe Becker'
p1571
Vexecutive director of the Sewerage
p1572
sS'Edward Chervenak'
p1573
Va political science professor
p1574
sS'Anika Watson'
p1575
VCity Park Academy parent
p1576
sS'Shawn Datchuk'
p1577
Vdirector of academic performance
p1578
sS'Jerome Dee Richard'
p1579
VState Rep.
p1580
sS'Todd Taylor'
p1581
Vpresident of the school Parent Teacher Organization
p1582
sS'Barry Kohl'
p1583
Vmind
p1584
sS'Eli John'
p1585
VAl
p1586
sS'LaTanja Silvester'
p1587
g6
sS'Kathy Lynn Honaker'
p1588
Vexecutive director of the Algiers Development District
p1589
sS'Edward Cohn'
p1590
VRabbi
p1591
sS'Torin Sanders'
p1592
VOrleans Parish School Board president
p1593
sS'Harold Juluke'
p1594
Vthe schools dean of students
p1595
sS'Joe Kimbrell'
p1596
VFrank Williams
p1597
sS'Tracy Guillory'
p1598
Vprincipal of Gentilly Terrace Elementary
p1599
sS'Lappa'
p1600
VBoard memberMike
p1601
sS'Cynthia Hedge-Morrell'
p1602
VCouncilwoman
p1603
sS'Croft'
p1604
Vprogram.With
p1605
sS'Tim McConnell'
p1606
VFire Department Superintendent
p1607
sS'Warren Riley'
p1608
VPolice Superintendent
p1609
sS'Waguespack'
p1610
Va veteran of three decades
p1611
sS'Borgne'
p1612
Vlakes
p1613
sS'Alex Kolker'
p1614
Vgeologist
p1615
sS'Sharonda Williams'
p1616
VLandrieus city attorney
p1617
sS'Audra George'
p1618
g6
sS'Curt Eysink'
p1619
g6
sS'Nan Ryan'
p1620
VInternationals assistant head of school
p1621
sS'Erik Kelt'
p1622
VMiddle School Assistant Principal
p1623
sS'Jan Moller'
p1624
g6
sS'Joseph Clark'
p1625
Vthe employee representative
p1626
sS'Craig Frosch'
p1627
g6
sS'Brooke Muntean'
p1628
VArmstrong-Butler
p1629
sS'Reuben Teague'
p1630
g6
sS'Olympia Snowe'
p1631
VR-Maine
p1632
sS'Carletta Graves'
p1633
Va parent
p1634
sS'Tim Hearin'
p1635
VSchool
p1636
sS'Cindy Connick'
p1637
g6
sS'Earl Armstrong'
p1638
Vcattle
p1639
sS'Simone Champagne'
p1640
VR-Erath
p1641
sS'Helen Ginger Berrigan'
p1642
VU.S. District Judge
p1643
sS'Hilal Williams'
p1644
Va spokeswoman for the department
p1645
sS'Tilman Hardy'
p1646
VMembers
p1647
sS'S White'
p1648
Vhttp://farm4.static.flickr.com/3629/3309724331_6d7de9c4f5.jpg
p1649
sS'Eric Blandford'
p1650
VJefferson Parish Sheriffs Deputy
p1651
sS'Darlene Morgan Brown'
p1652
VBoard members
p1653
sS'Edward Markle'
p1654
Va member of the Convention Centers board
p1655
sS'Thelma Ruth'
p1656
Vsecretary
p1657
sS'Michelle Wilcut'
p1658
g6
sS'Freret St.'
p1659
VRoom 207
p1660
sS'Diego Gonzales-Grande'
p1661
Va social studies teacher
p1662
sS'Mike Bagot'
p1663
VLee Hampton Monica Candal
p1664
sS'Jay Morris'
p1665
VState Rep.
p1666
sS'Ramsey Green'
p1667
VChairman
p1668
sS'Charlie Mackles'
p1669
Vthe associations former chief financial officer
p1670
sS'Sandy Rosenthal'
p1671
Vfounder of Levees.org
p1672
sS'Ashley Beckner'
p1673
Vthe schools director of finance and operations
p1674
sS'Deborah Cotton'
p1675
Vcommunications director for the coalition
p1676
sS'Kevin Tschirn'
p1677
VAuditors
p1678
sS'Jim Tucker'
p1679
VHouse Speaker
p1680
sS'Timothy Ryan'
p1681
VDr.
p1682
sS'Tracy Joseph'
p1683
VCrescent Leadership Academy education director
p1684
sS'Stefanie Allweiss'
p1685
g6
sS'Peter Gardner'
p1686
VNew Orleans
p1687
sS'Paul Rotner'
p1688
Vpresident of the associations New Orleans chapter
p1689
sS'Joseph S. Clark Preparatory High'
p1690
Vthe boards only high school
p1691
sS'Mike Feinberg'
p1692
Vpresident of KIPPs national board
p1693
sS'Jolyn King'
p1694
Vsecretary
p1695
sS'Peggy Wilson'
p1696
VStephanie Bibbs
p1697
sS'Tyronne Walker'
p1698
Vcity employee
p1699
sS'Edison'
p1700
VThough
p1701
sS'Joyce Wilkerson'
p1702
VExecutive Director
p1703
sS'Andrew Sullivan'
p1704
Vhimself an independent small-c conservative Catholic
p1705
sS'Rachel Perry'
p1706
Va New Orleans resident
p1707
sS'Derek Bardell'
p1708
g6
sS'Jennifer Walcott Goldstein'
p1709
VKIPPs chief of staff
p1710
sS'Daniel Abrahamson'
p1711
g6
sS'Erin Greenwald'
p1712
Vhead of the committee
p1713
sS'Brown'
p1714
VincludedHal
p1715
sS'Peter Scharf'
p1716
g6
sS'George Freeman'
p1717
Vattorneys
p1718
sS'Grover Norquist'
p1719
Vthe low-tax absolutist
p1720
sS'Lance Africk'
p1721
VU.S. District Court Judge
p1722
sS'Anna Burrell'
p1723
Vboard members
p1724
sS'Darren Beltz'
p1725
Va stay-at-home dad and Lyce parent
p1726
sS'James Perry'
p1727
Vcandidate
p1728
sS'Clancy DuBos'
p1729
g6
sS'Andrea Armstrong'
p1730
VArmstrong
p1731
sS'Nagin'
p1732
VC.Ray
p1733
sS'Babs Johnson'
p1734
g6
sS'Andre Perry'
p1735
Vassociate director of Loyolas Institute
p1736
sS'Brooke Muntean Franklins'
p1737
Vparent
p1738
sS'Scott Cowen'
p1739
VLouisiana
p1740
sS'Francis J. Cascio'
p1741
Vtreasurer
p1742
sS'Charles Southall III'
p1743
VRev.
p1744
sS'Mary Sens'
p1745
Vjudges sister-in-law
p1746
sS'Anne Mueller'
p1747
Vamueller@thelensnola.org
p1748
sS'Nancy Colomb'
p1749
g6
sS'Simone Green'
p1750
Vdirector of the schools finance and operations
p1751
sS'Mike Miller'
p1752
g6
sS'Richard Hansen'
p1753
VCol.
p1754
sS'Steve Barr'
p1755
Vthe head of the schools management organization
p1756
sS'John Barry'
p1757
Vvice president of the authority
p1758
sS'Constance St.'
p1759
VKingsley
p1760
sS'Kristy Nichols'
p1761
VAdministration
p1762
sS'Gregory Rattler'
p1763
Vvice president
p1764
sS'Jim Fannin'
p1765
VHouse Appropriations Chairman
p1766
sS'Keith Crawford'
p1767
Vchairman of the boards finance committee
p1768
sS'Desmond Moore'
p1769
Vprincipal of Paul Habans Elementary School
p1770
sS'Marshall Coulter'
p1771
g6
sS'Daniel Davis'
p1772
VEinsteins development director
p1773
sS'NoraAnn Winbush'
p1774
g6
sS'Edwin Murray'
p1775
VD-New Orleans
p1776
sS'Jason Williams'
p1777
Vat-Large Councilman
p1778
sS'Michael Dunn'
p1779
Vofficer
p1780
sS'Patty Glaser'
p1781
Vthe assistant head of school
p1782
sS'Brian Brox'
p1783
Va political science professor at Tulane University
p1784
sS'Frederick J. Marc-Aurele Jr.'
p1785
Va manager for Louisiana Solutions LLC
p1786
sS'Doug Baker'
p1787
g6
sS'Karen Craig'
p1788
Vthe foundations chief financial officer
p1789
sS'Steven Sheffrin'
p1790
Va professor of economics at Tulane
p1791
sS'James Brady'
p1792
VU.S. District Court Judge
p1793
sS'David Whiddon'
p1794
VCapt.
p1795
sS'Heather Schwartz'
p1796
Van education policy researcher at RAND Corporation
p1797
sS'Kim Bondy'
p1798
Vexecutive assistant
p1799
sS'Naomi'
p1800
VNeighbors
p1801
sS'Ernest Freddie Charbonnet'
p1802
VYolanda King incumbent Niki Roberts
p1803
sS'Victor'
p1804
Vshout profanities
p1805
sS'Mary Landrieu'
p1806
VU.S. Sen.
p1807
sS'Jimmy LeBlanc'
p1808
VCorrections Secretary
p1809
sS'Chris Kalka'
p1810
VSgt.
p1811
sS'Jason Hughes'
p1812
VNew board member
p1813
sS'Tom Slager'
p1814
Vofficer
p1815
sS'Clarence Robinson'
p1816
VJMAC chair
p1817
sS'William Kulick'
p1818
g6
sS'Principal Noell Lugay'
p1819
Vschool
p1820
sS'Claire Adriaan'
p1821
VSt.
p1822
sS'Reed Henderson'
p1823
Vstate Rep.
p1824
sS'Zoey Reed'
p1825
Va spokeswoman for the Recovery School District
p1826
sS'Patrice Pujol'
p1827
VSuperintendent of Schools
p1828
sS'Laurin Jacobsen'
p1829
VVice President
p1830
sS'Edward Paul Cohn'
p1831
VCommissioner Rabbi
p1832
sS'Blake LeMaire'
p1833
VMaj.
p1834
sS'Brenna Benson'
p1835
VChief Information Officer
p1836
sS'Irvin Mayfield'
p1837
Vmusician
p1838
sS'Catherine Pozniak'
p1839
Vexecutive director for BESE
p1840
sS'Nathan Thomas'
p1841
Va maintenance staffer
p1842
sS'Mark Caramanica'
p1843
Vthe groups Freedom of Information director
p1844
sS'Richard Best'
p1845
VSchool Director
p1846
sS'Sally Friedman'
p1847
g6
sS'Howard Schwartz'
p1848
g6
sS'Amy Huang'
p1849
Va Teach for America alumna from Chicago
p1850
sS'Jared Brossett'
p1851
VD-New Orleans
p1852
sS'Tammy Robicheaux'
p1853
Vchief of instruction
p1854
sS'Christopher Hines'
p1855
Vthe organizations chief operations officer
p1856
sS'Meredith Angelson'
p1857
g6
sS'Kelly Thompson'
p1858
Vthe former Langston Hughes Academy business manager
p1859
sS'Tillman Hardy'
p1860
Vone of its founding board members
p1861
sS'Cora Williams'
p1862
VSister
p1863
sS'Mark Huber'
p1864
Vthe former director of development
p1865
sS'Colette Martin'
p1866
Va member of Parents Against Gun Violence
p1867
sS'Claire Jecklin'
p1868
Vco-director of academics and school development
p1869
sS'Brian Khey'
p1870
g6
sS'Archer Western'
p1871
Vthe Illinois-based contracting
p1872
sS'Erica Beck'
p1873
g6
sS'Kim Boyle'
p1874
Vattorney
p1875
sS'Paris Woods'
p1876
Valumni coordinator
p1877
sS'Laura Paul'
p1878
g6
sS'Stan Dai'
p1879
VJoseph Basel
p1880
sS'Karen Dwyer'
p1881
Vvice chair
p1882
sS'Chauncey Nash'
p1883
VPrincipal
p1884
sS'Krystyna Jones'
p1885
VFinance committee members
p1886
sS'CEODouglas Evans'
p1887
Vthe schools chief executive officer
p1888
sS'Wes Taylor'
p1889
Vdirector of the Health Department
p1890
sS'Hilda W. Young'
p1891
VBoard members
p1892
sS'Lesley Reid'
p1893
g6
sS'Gina Brown'
p1894
VLouisiana Legislative Auditors officeAuditors
p1895
sS'Mike Lappa'
p1896
Vmembers
p1897
sS'Tom McPherson'
p1898
Vacademic director
p1899
sS'Ninh Tran'
p1900
Vthe schools director of talent and operations
p1901
sS'Eric Jones'
p1902
g6
sS'Sivi Domango'
p1903
VSchool Director
p1904
sS'Tarence Davis'
p1905
g6
sS'Courtney Garrett'
p1906
Vinterviewswith
p1907
sS'Harold Marchand'
p1908
Vdeputy special counsel for the board
p1909
sS'Lee Adler'
p1910
Vvice chairman
p1911
sS'Juana J. Darby'
p1912
Vmother of seventh-grader Courtney Darby
p1913
sS'Nolan Marshall Jr.'
p1914
Vhttp://lensnola.wpengine.netdna-cdn.com/wp-content/uploads/2014/01/Nolan-Marshall-Jr.--e1390358360748.jpg
p1915
sS'Paul Pechon'
p1916
Vfinance committee member
p1917
sS'Bill Davis'
p1918
VCol.
p1919
sS'Dan Petrolia'
p1920
Van associate professor of agricultural economics
p1921
sS'Mark Earley'
p1922
g6
sS'Brad Cousins'
p1923
Vexecutive director of the organization since August
p1924
sS'Darrell Kruger'
p1925
g6
sS'Dana Eness'
p1926
Vthe executive director of The Urban Conservancy
p1927
sS'David Simon'
p1928
VEric Overmyer and Nina Noble
p1929
sS'Gabriela Fighetti'
p1930
VDirector of Student Enrollment for the RSD
p1931
sS'Maryann Bohlke'
p1932
Va teacher and K-3 chair
p1933
sS'Stuart Gay'
p1934
Vthe associations chief financial officer
p1935
sS'Norby Chabert'
p1936
VState Sen.
p1937
sS'Tap Bui'
p1938
VMember
p1939
sS'Robert Routon'
p1940
Vproject manager for the state coastal agency
p1941
sS'Joan Reilly'
p1942
g6
sS'Josh Reyher'
p1943
Va parent of twoLyce students
p1944
sS'Tiffany Crawford'
p1945
Vthe enhancement corporations executive director
p1946
sS'Virgil St.'
p1947
VGretna
p1948
sS'Robert Harvey Sr.'
p1949
VMipros attorney
p1950
sS'Chuck Gasho'
p1951
VBoard member
p1952
sS'Bill Borah'
p1953
VNational Trust for Historic Preservation Sandra Stokes
p1954
sS'Christopher Sepulvado'
p1955
Vdeath row inmate
p1956
sS'Rahel Wondwossen'
p1957
Vprincipal of Cohen College Prep High School
p1958
sS'Blakley'
p1959
VMid City Mr.
p1960
sS'Robert Travis Scott'
p1961
Vpresident of the Public Affairs Research Council
p1962
sS'Brendel Deemer'
p1963
g6
sS'Tim Osborn'
p1964
VNOAAs
p1965
sS'Lilijana Mamoorian Johnson'
p1966
VErrol George
p1967
sS'Larry Baudoin'
p1968
VFranklins chief financial officer
p1969
sS'Walter Paulson'
p1970
VMaj. Gen.
p1971
sS'Dave Bing'
p1972
VDetroit Mayor
p1973
sS'Robert Jackson'
p1974
g6
sS'Stephen Riedlinger'
p1975
VU.S. Magistrate Judge
p1976
sS'Anthony Dotty'
p1977
VBoard president
p1978
sS'Claudia Barker'
p1979
Vguest speaker
p1980
sS'Richard Pennington'
p1981
VSuperintendent
p1982
sS'Gretchen Bohlke'
p1983
Vboard member
p1984
sS'Cynthia Cade'
p1985
Vincumbent Democrat Childcare center
p1986
sS'Duane Buck'
p1987
Vdeath row inmate
p1988
sS'Ross Douhat'
p1989
Vconservative columnist in The New York Times
p1990
sS'Joseph'
p1991
VMorning
p1992
sS'Nannette Jolivette Brown'
p1993
VCity Attorney
p1994
sS'Ted Alpaugh'
p1995
g6
sS'Lindsey Hortenstine'
p1996
g6
sS'Jacob S. Capraro'
p1997
Vcounsel to the board
p1998
sS'Mercedes Montagnes'
p1999
Va lawyer for Sepulvado
p2000
sS'Murray Pitts'
p2001
Vsecretary
p2002
sS'Susan McCampbell'
p2003
Vconsent decree monitor
p2004
sS'Thad Allen'
p2005
VCoast Guard Adm.
p2006
sS'Margaret Hay'
p2007
g6
sS'Terry Ebbert'
p2008
VBoard President Col.
p2009
sS'Sarah Fontenelle'
p2010
g6
sS'Rene Greer'
p2011
Vstate public affairs director
p2012
sS'Hester Cottles'
p2013
VRoslyn Smith
p2014
sS'Monty Sullivan'
p2015
VDelgados chancellor
p2016
sS'Jon Burge'
p2017
g6
sS'Josephine'
p2018
Vhttp://farm4.static.flickr.com/3214/2890658624_17540e559c.jpg
p2019
sS'Bill Kiolbasa'
p2020
Vthe national organizations chief financial officer
p2021
sS'Bret Allain'
p2022
VState Sen.
p2023
sS'Jon Smith'
p2024
Vthe French Market Corporations Executive Director
p2025
sS'Joe Gilyot'
p2026
Vassistant principal
p2027
sS'Bob Lacour'
p2028
Vthe boards attorney
p2029
sS'Harold Ritchie'
p2030
VD-Franklinton
p2031
sS'Jonathan Bertsch'
p2032
VKIPPs director of advocacy
p2033
sS'Gary Robichaux'
p2034
VReNEW Chief Executive Officer
p2035
sS'Kaleb'
p2036
VAnika Watsons third-grader
p2037
sS'Mary Matalin'
p2038
Vwife
p2039
sS'Greg Beuerman'
p2040
g6
sS'Raphael Gang'
p2041
VLouisiana Department of EducationReid
p2042
sS'Grace Bauer'
p2043
g6
sS'Ed Chervenak'
p2044
Va University of New Orleans political scientist
p2045
sS'Yu Jiang'
p2046
Vthe director of the institute
p2047
sS'Allison Bent'
p2048
Vdirector of accounting and fiscal services
p2049
sS'Henry Rosenblat'
p2050
Vproperty owner
p2051
sS'Mona Flanagan'
p2052
VJackson Avenue
p2053
sS'Rick Snyder'
p2054
Va Republican
p2055
sS'Schwarzman'
p2056
VareMat
p2057
sS'Arthur Raymond Smith'
p2058
Vhttp://farm4.static.flickr.com/3620/3471094710_ba12be8f5d.jpg
p2059
sS'Louella Givens'
p2060
VElementary Education member
p2061
sS'Gladstone Jones'
p2062
g6
sS'Crazy Johnny'
p2063
Vnickname
p2064
sS'David Thaddeus Baker'
p2065
Va writing workshop for breast cancer survivors
p2066
sS'Jacqueline Wilson'
p2067
Va lawyer for the Department of Corrections
p2068
sS'Emily Waterfield'
p2069
VJason Hughes Monica Candal
p2070
sS'James Richardson'
p2071
Va Louisiana State University professor
p2072
sS'Perez'
p2073
VAPC
p2074
sS'Mary Laurie'
p2075
VO. Perry Walker Principal
p2076
sS'Dorian Hastings'
p2077
VResearcher
p2078
sS'Liz Cummings'
p2079
g6
sS'Doug Harrell'
p2080
Vthe Tulane University controller
p2081
sS'Cynthia Hedge Morrell'
p2082
VDistrict D Councilwoman
p2083
sS'Ruth Ramsey'
p2084
Vhttp://lensnola.wpengine.netdna-cdn.com/wp-content/uploads/2014/10/RRamsey_0125R-336x515.jpeg
p2085
sS'Carol Skriloff Starr'
p2086
Vboard members
p2087
sS'Cam-Thanh Tran'
p2088
VBoard chair
p2089
sS'Melody Baham'
p2090
VMontegut
p2091
sS'Garret Graves'
p2092
Vhead of Gov. Bobby Jindals coastal office
p2093
sS'Jonathan Aronie'
p2094
Vattorney
p2095
sS'Harry Cantrell'
p2096
Vthe magistrate commissioner
p2097
sS'John Tobler'
p2098
Va field trip to explore local history
p2099
sS'Tom Wagner'
p2100
g6
sS'Stephen Perry'
p2101
g6
sS'Tim Burns'
p2102
VR-Mandeville
p2103
sS'Ed Price'
p2104
VD-Baton Rouge another black caucus member
p2105
sS'J. Storey Charbonnet'
p2106
VBoard members
p2107
sS'Louis Robein'
p2108
Van attorney for the firefighters
p2109
sS'Matt Candler'
p2110
Veducation colleague
p2111
sS'Jenn Stanchfield'
p2112
Va consultant from Vermont
p2113
sS'Ryan Berni'
p2114
Vpress secretary for the Landrieu administration
p2115
sS'Brenda Christiansen'
p2116
Vboard members
p2117
sS'Spellman'
p2118
Vgraduate 65
p2119
sS'Cantrell'
p2120
g6
sS'Cathy Mincberg'
p2121
g6
sS'James Pineda'
p2122
Vthe boards newest member
p2123
sS'Joshua Johnston'
p2124
VLens reporter
p2125
sS'Rachel Stafford'
p2126
Vthe RSDs executive director of special education
p2127
sS'Eric LaFleur'
p2128
VSen.
p2129
sS'Avery Alexander'
p2130
Vboth New Orleans Democrats
p2131
sS'James Baker'
p2132
Vmember
p2133
sS'Marc Morial'
p2134
Vgrant agreements with the city show
p2135
sS'Richard Dieter'
p2136
g6
sS'Helena Moreno'
p2137
VRep.
p2138
sS'Tim Barfield'
p2139
Vexecutive counsel for the Department of Revenue
p2140
sS'Wanda Anderson Guillaume'
p2141
VVice President
p2142
sS'Delisalynn'
p2143
Vsomething
p2144
sS'Michael Bagneris'
p2145
g6
sS'Frith Malin'
p2146
g6
sS'Chris Gilmore'
p2147
g6
sS'Tessa Jackson'
p2148
Vvoting privileges
p2149
sS'April Neujean'
p2150
g6
sS'Yolda Williams'
p2151
g6
sS'Eva Alito'
p2152
Vboard members
p2153
sS'Greg Thompson'
p2154
g6
sS'Giuseppe Miserendino'
p2155
g6
sS'David Vitter'
p2156
Va Republican
p2157
sS'Feldman'
p2158
g6
sS'Allison Lowe'
p2159
Vhttp://lensnola.wpengine.netdna-cdn.com/wp-content/uploads/2014/06/Allison-Lowe-140x140.jpg
p2160
sS'Rodney Alexander'
p2161
VU.S. Rep
p2162
sS'Niloy Gangopadhyay'
p2163
VSchool Director
p2164
sS'Jared Frank'
p2165
Vthe schools director of finance and operations
p2166
sS'Mignhon Tourn'
p2167
Vthe boards treasurer
p2168
sS'Kathy Hebert'
p2169
Vthe boards accountant
p2170
sS'Cornelius Tilton'
p2171
VRev.
p2172
sS'Shawn Rodgers'
p2173
Vthe board treasurer
p2174
sS'Bob Israel'
p2175
Vpresident of the Louisiana Automobile Dealers Association
p2176
sS'Ware Gasparian'
p2177
g6
sS'Fox'
p2178
VMr.
p2179
sS'Damon Burns'
p2180
VWilliams
p2181
sS'T.K. Trieu'
p2182
Vmembers
p2183
sS'Michelle Douglas'
p2184
VPrincipal
p2185
sS'David Pipes'
p2186
VAssistant District Attorney
p2187
sS'Raymond Burkart III'
p2188
g6
sS'Roy Austin'
p2189
VDeputy Assistant Attorney General
p2190
sS'Ramona Perkins'
p2191
VJames Pineda Laurin Jacobsen and Margaret Nguyen
p2192
sS'Duskin'
p2193
VSummer
p2194
sS'Karl Jentoft'
p2195
Vproject manager
p2196
sS'John Ayers'
p2197
g6
sS'Cynthia Horne'
p2198
VBusiness Manager
p2199
sS'Marshall Faulk'
p2200
Va Carver alumnus
p2201
sS'Susan Krinsky'
p2202
Vtreasurer
p2203
sS'Gregory Langley'
p2204
g6
sS'Bill Robertson'
p2205
g6
sS'Phil Berke'
p2206
g6
sS'Jerry Sandusky'
p2207
VPenn State coach
p2208
sS'Paul Mitchell'
p2209
Vdeputy director of the pension board
p2210
sS'Kelly McHugh'
p2211
Vanother of Jindals appointees
p2212
sS'Tu Hoang'
p2213
VEducation Equity Organizer for VAYLA
p2214
sS'J. David Rogers'
p2215
g6
sS'Scott Sternberg'
p2216
VThe Lens attorney
p2217
sS'Gusman'
p2218
VSheriff
p2219
sS'Jammie Poole Jr.'
p2220
g6
sS'Tony Faciane'
p2221
VDirector of Neighborhood Stabilization
p2222
sS'Maggie Calmes'
p2223
VThe Lens staff writer |
p2224
sS'Lynden Swayze'
p2225
Vthe schools chief financial officer
p2226
sS'Sean Wilson'
p2227
Vschool
p2228
sS'Victoria'
p2229
VFord Crown
p2230
sS'Caprice Young'
p2231
Vthe foundations vice president of education
p2232
sS'Shawn Preau'
p2233
VArchitect
p2234
sS'Reginald Flenory'
p2235
VPrincipal
p2236
sS'Heidi Campbell'
p2237
VWilliams interim principal
p2238
sS'Pauger St.'
p2239
g6
sS'Wilfred Wright'
p2240
g6
sS'Gary Clements'
p2241
Van attorney for Sepulvado
p2242
sS'Dan Claitor'
p2243
VR-Baton Rouge
p2244
sS'Rachel Jones'
p2245
Va part-time art teacher
p2246
sS'Raza'
p2247
VMr.
p2248
sS'Michael Masterson'
p2249
Vmath and computer-science teacher
p2250
sS'Grisela Jackson'
p2251
VChairwoman
p2252
sS'Dennis Jones'
p2253
g6
sS'Dar Wolnik'
p2254
Va Fortin Street resident
p2255
sS'David Gilmore'
p2256
Vthe head of the Housing Authority
p2257
sS'Deborah Denno'
p2258
g6
sS'Alice Midkiff'
p2259
Vboth educators
p2260
sS'Debra Fountain'
p2261
g6
sS'Rhonda Kalifey-Aluise'
p2262
Vthe organizations executive director
p2263
sS'Greg Fahrenholt'
p2264
Va staff attorney for the Inspector General
p2265
sS'Allen Eskew'
p2266
Van architect with Tricentennial
p2267
sS'Ira Thomas'
p2268
VSouthern University at New Orleans police chief
p2269
sS'Jasmine Haralson'
p2270
Va NORA liaison to other government agencies
p2271
sS'Tracey Flemings-Davillier'
p2272
VJuvenile Court Judge
p2273
sS'Barbara MacPhee'
p2274
Vboard president
p2275
sS'David Muth'
p2276
VNational Wildlife Federation
p2277
sS'Willie Zanders'
p2278
Vattorney
p2279
sS'Charles Fenet'
p2280
VVaughn Fauria
p2281
sS'Charles Southall'
p2282
VHillard Heintzes proposal wasthe Rev.
p2283
sS'Alan Seabaugh'
p2284
Vstate Rep.
p2285
sS'Terri Williams'
p2286
Vthe schools chief academic officer
p2287
sS'David Marcello'
p2288
g6
sS'Kathleen Carlin'
p2289
Vsecretary
p2290
sS'Mavis Early'
p2291
Vthe groups executive director
p2292
sS'Catrina Reed'
p2293
Vthe schools chief financial officer
p2294
sS'Jeff Thompson'
p2295
VR-Bossier City
p2296
sS'Gail Amant'
p2297
VBoard member
p2298
sS'Paige A. Saleun'
p2299
VBoard Member
p2300
sS'Whit Kling Jr.'
p2301
g6
sS'Jon Kyl'
p2302
VR-Ariz.
p2303
sS'Frank Williams'
p2304
Vtreasurer
p2305
sS'Cherrelle Simms'
p2306
Va lawyer in the City Attorneys Office
p2307
sS'Caroline Roemer Shirley'
p2308
VPublic Charter Schools executive director
p2309
sS'Elizabeth Rhodes'
p2310
Vmembers
p2311
sS'Robert Delle'
p2312
Vchair of the curriculum committee
p2313
sS'Andrew Ward'
p2314
Vchairman of the board
p2315
sS'Tommy Meagher'
p2316
Vsecretary-treasurer of the pension fund
p2317
sS'Carter'
p2318
Va former teacher
p2319
sS'Bart Stupak'
p2320
VRep.
p2321
sS'Cheryl Berzat'
p2322
Va parent of a student at Ashe
p2323
sS'Ali McCormick'
p2324
VEducation
p2325
sS'Rod Paige'
p2326
Va former U.S. secretary of education
p2327
sS'Erick Dillard'
p2328
Vstudent
p2329
sS'Ken Holder'
p2330
g6
sS'Norbert Carroll'
p2331
VNew Orleans Police detective
p2332
sS'Sheana Turner'
p2333
VWilson parents
p2334
sS'Sandra Wheeler-Hester'
p2335
Vcommunity activist
p2336
sS'Windi D. Brown'
p2337
Vboard members
p2338
sS'Bernard'
p2339
VSt.
p2340
sS'Ben Castoriano'
p2341
VMembers
p2342
sS'Charles Maldonado'
p2343
VThe Lens government accountability reporter
p2344
sS'Sodexo'
p2345
Vanother service provider
p2346
sS'Debra Robertson'
p2347
VPrincipal
p2348
sS'Earnestine Bennett-Johnson'
p2349
Vboard member
p2350
sS'Sal Genovese'
p2351
Vboard member
p2352
sS'Tonia Moore'
p2353
g6
sS'Catherine MacPhaille'
p2354
Vboard member
p2355
sS'Johnny Koch'
p2356
Vthe press associations Baton Rouge lobbyist
p2357
sS'Desean Denis'
p2358
VLens Third-grader
p2359
sS'David Bozzo'
p2360
Vboard member
p2361
sS'Jan Mann'
p2362
VFirst Assistant U.S. Attorney
p2363
sS'Sharon Aguillard'
p2364
Vboard members LaToya Cantrell
p2365
sS'Mary Guinn'
p2366
VEsperanzas principal
p2367
sS'Ava Lee'
p2368
Vthe school director
p2369
sS'Timothy Jackson'
p2370
VVice Chairperson
p2371
sS'Ben McLeish'
p2372
Vcharter board president
p2373
sS'John Alario'
p2374
VSenate President
p2375
sS'Oz'
p2376
VDr.
p2377
sS'Anthony Amato'
p2378
Vhead of school
p2379
sS'Nadine Ramsey'
p2380
VCommittee Chairwoman
p2381
sS'John Parauka'
p2382
VSocial studies teacher
p2383
sS'Cohen'
p2384
Vtime
p2385
sS'Verne Kennedy'
p2386
g6
sS'Jacquelyn Clarkson Jackie Cole'
p2387
g6
sS'Lee C. Reid'
p2388
Vattorneys
p2389
sS'David St. Etienne'
p2390
VGregorys brother
p2391
sS'Walter Gallas'
p2392
Vauthor
p2393
sS'Bernell'
p2394
Vparents
p2395
sS'Joe Hassinger'
p2396
Vvice-president
p2397
sS'Natashia Paul'
p2398
g6
sS'Gloria Miles'
p2399
Venrollment director
p2400
sS'Christian Rhodes'
p2401
VGreg St. Etienne
p2402
sS'Susan Brady'
p2403
g6
sS'Christopher Bowman'
p2404
g6
sS'Bobby Hardrick'
p2405
Vschool employee
p2406
sS'Bill Murphy'
p2407
g6
sS'Pam Stewart'
p2408
Vdirector of development
p2409
sS'David Winkler-Schmit'
p2410
Vboard president
p2411
sS'Jenel Hazlett'
p2412
Vpresident of Northwest Carrollton Civic Association
p2413
sS'Robert Couhig III'
p2414
Vthe boards president
p2415
sS'Lysianne Essama'
p2416
g6
sS'Mark Romig'
p2417
Vits president and chief executive officer
p2418
sS'Darleene Peters'
p2419
VPierson Etienne Rhodes
p2420
sS'Brady'
p2421
VU.S. Supreme Court case
p2422
sS'Aimee Quirk'
p2423
Vthe mayors adviser for economic development
p2424
sS'Desiree Charbonnet'
p2425
VAdministrative Judge
p2426
sS'David'
p2427
Vhttp://farm4.static.flickr.com/3257/3167113456_b74550c46b.jpg
p2428
sS'Brad Thiessen'
p2429
VColumbia University
p2430
sS'J.P. Hymel'
p2431
Vboard president
p2432
sS'Stephan Wanger'
p2433
Va local artist
p2434
sS'Cassandra Youmans'
p2435
VDr.
p2436
sS'Velta Sims'
p2437
Vsecretary
p2438
sS'Sophie Cull'
p2439
g6
sS'Ben Hicks'
p2440
VCPA
p2441
sS'David Treen'
p2442
VGov.
p2443
sS'Nick Altiero'
p2444
VTulane University
p2445
sS'Dolores T. Aaron Elementary'
p2446
VReNEW
p2447
sS'Jack Bergmann'
p2448
VGen.
p2449
sS'Kyshun Webster'
p2450
VOperation REACHs executive officer
p2451
sS'Ed Murray'
p2452
VD-New Orleans
p2453
sS'Michael Jacobson'
p2454
g6
sS'Dwayne Scheuermann'
p2455
VLt.
p2456
sS'Sally Spahn'
p2457
g6
sS'Karen Carter Peterson'
p2458
VD-New Orleans
p2459
sS'Shah'
p2460
VMr.
p2461
sS'Latanya Graham'
p2462
Va former college programs director
p2463
sS'Sean Gallagher'
p2464
VAkili Academys founder and former executive director
p2465
sS'Jonathan Perry'
p2466
Vfelonies SB state Sen.
p2467
sS'Derwyn Bunton'
p2468
Vhead of the Public Defenders Office
p2469
sS'Chas Roemer'
p2470
Vthe president of BESE
p2471
sS'Makiyah Moody'
p2472
g6
sS'Herb Patterson'
p2473
VBoard members
p2474
sS'Elaine Reyes'
p2475
VBoard Treasurer
p2476
sS'Harry Blumenthal'
p2477
Vchair of the boards finance committee
p2478
sS'Michael Pizzolatto'
p2479
VRandy Hutchison
p2480
sS'Darrell K. Sims'
p2481
Va former NOMMA employee
p2482
sS'Stacey Gengel'
p2483
VJolene Jeff
p2484
sS'Kira Orange Jones'
p2485
VBESE members
p2486
sS'Nikki Jones'
p2487
Vprofessor
p2488
sS'Alison Schmitt'
p2489
Van associate consultant with Hunnewells company
p2490
sS'Elizabeth Sullivan'
p2491
VSuccess Preps special education coordinator
p2492
sS'Soledad OBrien'
p2493
Vnews anchor
p2494
sS'Woodward'
p2495
Vthe contractor in charge of construction
p2496
sS'Bennett'
p2497
VBoard
p2498
sS'Ron Curry'
p2499
Vadministrator
p2500
sS'Harold Foley'
p2501
VDeveloper
p2502
sS'Frank Rabalais'
p2503
Vmembers
p2504
sS'Rodney Lilley'
p2505
Vfinance director
p2506
sS'Lisa Tropez-Arceneaux'
p2507
Vboard member
p2508
sS'Faydra Alexander'
p2509
Va former teacher with the charter organization
p2510
sS'Michael Cowan'
p2511
VLoyola law professor
p2512
sS'Hillard Heintze'
p2513
V$ 7 million *** Chicago-based Hillard Heintze
p2514
sS'Matt Amoss'
p2515
Vhead of schools/CEO Sean Wilson
p2516
sS'Susan Maclay'
p2517
Vpresident of the authority board
p2518
sS'Peter Fos'
p2519
VUNO President
p2520
sS'Walt Leger III'
p2521
VD-New Orleans
p2522
sS'David Heitmeier'
p2523
Vstate Sen.
p2524
sS'Steve Estopinal'
p2525
Vpresident of the board
p2526
sS'Carlos Lopez'
p2527
Vconsultant
p2528
sS'Gail Lazard'
p2529
VSchool Principal
p2530
sS'Darryl Kilbert'
p2531
Vschool board Superintendent
p2532
sS'Rebecca Glover'
p2533
Vaunt
p2534
sS'Kyle Graham'
p2535
Vdeputy executive director of the coastal agency
p2536
sS'Tamara Handy'
p2537
VConstruction seniors
p2538
sS'Gina Warner'
p2539
g6
sS'Kevin Copes'
p2540
VLSU faculty senate president
p2541
sS'Percy Marchand'
p2542
Va business owner and Gert Town resident
p2543
sS'Mary Kay Parker'
p2544
Vboard president
p2545
sS'Ron Wilson'
p2546
g6
sS'Scott Porter'
p2547
g6
sS'Janice Dupuy'
p2548
VPrincipal
p2549
sS'Blaine LeCesne'
p2550
Vthe board president
p2551
sS'Lourdes Moran'
p2552
VOrleans Parish School Board President
p2553
sS'Emily Zilich'
p2554
VCurriculum Developer
p2555
sS'Sarah Usdin'
p2556
VSchool Board member
p2557
sS'Joseph S. Clark Preparatory'
p2558
VFirstLines only high school
p2559
sS'Nicholas James'
p2560
Va senior at Sci Academy
p2561
sS'Mary Kay Kleinpeter-Zamora'
p2562
Vthe citys chief procurement officer
p2563
sS'Rhonda Alusie'
p2564
g6
sS'George Zimmerman'
p2565
g6
sS'Claude Brunet'
p2566
VConsul General of France in New Orleans
p2567
sS'Logan Crowe'
p2568
VPrincipal
p2569
sS'Tim Ryan'
p2570
VMembers
p2571
sS'Derek D. Bardell'
p2572
Vboard members
p2573
sS'Al Miester'
p2574
Vpresident of the Hynes Charter School Board
p2575
sS'Leigh Checkman'
p2576
g6
sS'Tyler Gamble'
p2577
Va spokesman for the Landrieu administration
p2578
sS'Sumeet Goil'
p2579
Vthe networks director of data and assessment
p2580
sS'Paul Lo'
p2581
VDr.
p2582
sS'Dawn Collins'
p2583
VDupuy
p2584
sS'Carolyn Bradford'
p2585
VMember
p2586
sS'Swanson'
p2587
VJones
p2588
sS'James Gray'
p2589
VCouncilman
p2590
sS'Patrick Jefferson'
p2591
VRep.
p2592
sS'Joshua Stockley'
p2593
g6
sS'Robin Giarrusso'
p2594
VDistrict Judge
p2595
sS'Jeff Hebert'
p2596
Vdirector of blight policy and neighborhood revitalization
p2597
sS'Annie Clark Cambria'
p2598
g6
sS'Renee Boicourt'
p2599
g6
sS'meeting.Eileen Williams'
p2600
Vthe school principal
p2601
sS'John Bowman'
p2602
Va retired school administrator
p2603
sS'Alexander Pearlman'
p2604
Vthe executive director of operations at ReNEW
p2605
sS'Vera Triplett'
p2606
Vthe chief executive officer for the network
p2607
sS'Stephen Lane'
p2608
VNew Orleans Musical Legends lawyer
p2609
sS'Rick Leuttich'
p2610
Vboard member
p2611
sS'Dee Fuchs'
p2612
Vthe boards vice president
p2613
sS'Melissa Lessell'
p2614
VMembers
p2615
sS'Tony Clayton'
p2616
Van attorney based in Port Allen
p2617
sS'Amy Chandler'
p2618
VGuidry aide
p2619
sS'Jerry Jones'
p2620
Vthe Jindal administrations assistant commissioner of administration
p2621
sS'Semaine Franaise'
p2622
Vthe inaugural French Week in New Orleans
p2623
sS'Tom Watson'
p2624
VRev.
p2625
sS'Robert Sampson'
p2626
VHarvard professor
p2627
sS'Michael Verderosa'
p2628
Va member of the neighborhood association
p2629
sS'Sarah Palin'
p2630
Vcandidate
p2631
sS'Tim Doody'
p2632
Vpresident of the authoritys board
p2633
sS'Jack Montoucet'
p2634
Vstate Rep.
p2635
sS'Randall'
p2636
Va former principal at Live Oak elementary
p2637
sS'Rhonda Dale-Hart'
p2638
Vtwo members of the audit team
p2639
sS'Armand Devezin'
p2640
VHuman Resources
p2641
sS'Bob Wertz'
p2642
Va trainer with the commission
p2643
sS'Eric Johnson'
p2644
Va client-care facilitator
p2645
sS'Stan Smith'
p2646
VOrleans Parish Schools Superintendent
p2647
sS'Poco Sloss'
p2648
Vmember
p2649
sS'Diane Williams'
p2650
Vthe special-education coordinator
p2651
sS'Michael Bagot'
p2652
Vmembers
p2653
sS'Lauren Hightower'
p2654
VLusher Charter School employee
p2655
sS'Mark Morgan'
p2656
VBaton Rouge engineer
p2657
sS'Jim Nelson'
p2658
Vboard president
p2659
sS'Brent Washington'
p2660
Vthe Director of Finance
p2661
sS'David McDonough'
p2662
Vowner and operator of Phoenix Recycling
p2663
sS'Mitch Landrieu'
p2664
VMayor
p2665
sS'Little Woods'
p2666
VBienville
p2667
sS'Yihong Julie Mao'
p2668
g6
sS'Robert Burvant'
p2669
Vmember
p2670
sS'Melissa Quintal'
p2671
V44 who works in logistics
p2672
sS'Akili'
p2673
Va strong performer
p2674
sS'Steve Scalise'
p2675
VRep.
p2676
sS'Karen Gadbois'
p2677
VThe Lens staff writer |
p2678
sS'Lafitte'
p2679
VBig Four housing sites
p2680
sS'Jay Altman'
p2681
VCEO
p2682
sS'Gerardo Viera'
p2683
Va member of the levee board
p2684
sS'Robert Gisevius'
p2685
VSgt.
p2686
sS'Ken Graham'
p2687
VMeteorologist-in-Charge of the New Orleans-Baton Rouge office
p2688
sS'Laurie Charbonnet'
p2689
VMike Bagot Emily Waterfield and Lee Hampton
p2690
sS'Dave Barnes'
p2691
Vthe third member whose term has expired
p2692
sS'Bill Clinton'
p2693
VPresident
p2694
sS'Kimberly Williams'
p2695
Vowner of New Millennium Education
p2696
sS'Elizabeth Marcell'
p2697
g6
sS'Jacques Berry'
p2698
g6
sS'Mike Samuels'
p2699
g6
sS'Trang Tieu'
p2700
Vengineer
p2701
sS'Alison Bent Bowler'
p2702
Vofficer
p2703
sS'Agnieszka McPeak'
p2704
VBoard Secretary
p2705
sS'Carolyn Hill'
p2706
VMembers
p2707
sS'Brenda Kellerman'
p2708
VPort St. Lucie Polices off-duty detail coordinator
p2709
sS'Benjamin Hicks'
p2710
Vhe schools chief financial officer
p2711
sS'Rebecca Catalanello'
p2712
VMiller
p2713
sS'Jenny Carey'
p2714
VKIPP Central City Academy assistant principal
p2715
sS'Lucy Dadayan'
p2716
g6
sS'Lori Mince'
p2717
Vattorney Gamble
p2718
sS'Chris Meyer'
p2719
Van RSD department supervisor
p2720
sS'Huddell'
p2721
VSwanson
p2722
sS'Dana Kaplan'
p2723
g6
sS'Jim Brown'
p2724
g6
sS'Peter Gyenis'
p2725
VRSDs Osborne building manager
p2726
sS'Erin Lewellen'
p2727
g6
sS'Janis Lemle'
p2728
g6
sS'Joseph P. Lopinto III'
p2729
VR-Metairie
p2730
sS'Tess Bradford'
p2731
Vthe chief operations officer
p2732
sS'Henry Espy'
p2733
Vbrother of Clinton Agriculture Secretary Mike Espy
p2734
sS'Thomas Perez'
p2735
VAssistant Attorney General
p2736
sS'Arne Duncan'
p2737
VObamas secretary of education
p2738
sS'Thomas Robichaux'
p2739
Vboard president
p2740
sS'Vic Stelly'
p2741
VR-Lake Charles
p2742
sS'Kimberly Baptiste'
p2743
Vboard member
p2744
sS'Bernell St. Cyr'
p2745
Vthe schools director of finance and operations
p2746
sS'Marjorie Esman'
p2747
Vexecutive director of the ACLU of Louisiana
p2748
sS'L. Olivia Sweetnam'
p2749
Vdirector of infection prevention and control
p2750
sS'Meg Lousteau'
p2751
VResidents
p2752
sS'Elizabeth Sigler'
p2753
Vsecretary
p2754
sS'Patricia Smith'
p2755
VRep.
p2756
sS'Robert Giordano'
p2757
g6
sS'Bill Miller'
p2758
g6
sS'Birdell Mitchell'
p2759
Vthe band director at Behrman
p2760
sS'Stephen J. Boyard Jr.'
p2761
VGrisela Jackson A. Jones Neyrey B. Raferty
p2762
sS'Daryl Purpera'
p2763
VAuditor
p2764
sS'Randolph Scott'
p2765
Vcity retiree
p2766
sS'Della Hasselle'
p2767
Va frequent freelance contributor to The Lens
p2768
sS'Michael Ranatza'
p2769
Vthe groups executive director
p2770
sS'Kathleen Blanco'
p2771
Vthen-Governor
p2772
sS'Dave Whiddon'
p2773
VCapt.
p2774
sS'Brian K. Richburg'
p2775
VSr.
p2776
sS'Daniel Mitchell'
p2777
g6
sS'La R.S. 49:17'
p2778
V2
p2779
sS'Edgar Chase III'
p2780
g6
sS'Ren Sonnier'
p2781
Vspokeswoman for the child services department
p2782
sS'Shawn Toranto'
p2783
Vprincipal/CEO of Einstein
p2784
sS'John Dillman'
p2785
VNew Orleans Police Detective
p2786
sS'Jacqueline Simon'
p2787
Vmembers
p2788
sS'Cynthia Willard-Lewis'
p2789
Vcouncil member
p2790
sS'Blumenthal'
p2791
VincludedHarry
p2792
sS'Julianne Ruocco'
p2793
Vthe schools director of finance and operations
p2794
sS'Tony Cook'
p2795
Va Delgado spokesman
p2796
sS'Chris John'
p2797
g6
sS'Allison Bent Bowler'
p2798
VFranklins chief financial officer
p2799
sS'Roslyn Smith'
p2800
VBoard members Madonna Green
p2801
sS'Jennifer Farwell'
p2802
Vpresident of the Mid City Neighborhood Organization
p2803
sS'Joyce Bowman'
p2804
VCaddo Parish Commissioner
p2805
sS'Tim Bryant'
p2806
Vpresident of the Fair Grounds
p2807
sS'Assistant Principal Ellen Bankston'
p2808
VDirector of Finance and OperationsKeeanya Dupre
p2809
sS'Janet Howard'
p2810
Vpresident of the Bureau of Governmental Research
p2811
sS'Cao'
p2812
VCongressman
p2813
sS'Brandy Thomas'
p2814
g6
sS'Joselyn Hill'
p2815
Va bartender at the club that night
p2816
sS'Earline Wallace'
p2817
g6
sS'memberAllen Kelly'
p2818
VBoard
p2819
sS'Charles Drew Elementary'
p2820
VDr.
p2821
sS'Suchitra Satpathi'
p2822
Vthe citys representative on the committee
p2823
sS'Kevin Kane'
p2824
Vpresident of the Pelican Institute
p2825
sS'Ralph Capitelli'
p2826
VAttorney
p2827
sS'Kern Reese'
p2828
Vco-chair of the Judicial Building Commission
p2829
sS'Kizzy Payton'
p2830
g6
sS'Ora Wiley'
p2831
VCraigs future principal
p2832
sS'Ben Kleban'
p2833
Vhead of New Orleans College Preparatory Academies
p2834
sS'Sam Fradella'
p2835
Vcommander of the police Public Information Office
p2836
sS'Miller-McCoy'
p2837
g6
sS'Joe Horton'
p2838
VDr.
p2839
sS'Juaquana Stewart'
p2840
g6
sS'Julian Parker'
p2841
VCriminal District Court Chief Judge
p2842
sS'Sarah Leffert'
p2843
Vdirector of development
p2844
sS'John Bel Edwards'
p2845
VRep.
p2846
sS'Jay H. Banks'
p2847
VMembership
p2848
sS'Edwin Edwards'
p2849
Vex-governor
p2850
sS'Salmon Shomade'
p2851
Vfinance committee member
p2852
sS'Michael Holmes'
p2853
Vstudent
p2854
sS'John Besh'
p2855
VChef
p2856
sS'Arnie Fielkow'
p2857
VCouncil President
p2858
sS'Richards Disposal'
p2859
Vand 56,000 for Metro Disposal
p2860
sS'Eula Lopez'
p2861
Vthe parish clerk
p2862
sS'Lawrence Cook III'
p2863
Vthe brother of Roch-Hicks son-in-law
p2864
sS'Jacinta Sanders'
p2865
Vthe schools director of finance and operations
p2866
sS'Marie Weatherspoon'
p2867
VWilsons behavior interventionist
p2868
sS'Siona LaFrance'
p2869
VLandrieu spokeswoman
p2870
sS'Colin Brooks'
p2871
VACSA board chairman
p2872
sS'Terry Christenson'
p2873
VTulane University professor
p2874
sS'James Austin'
p2875
Vconsultant
p2876
sS'Paul Hollis'
p2877
VState Rep.
p2878
sS'Derrick Bardell'
p2879
VBoard members
p2880
sS'Roland Doucette'
p2881
Vchair of the community committee
p2882
sS'Michael Laughlin'
p2883
VSheriffs Col.
p2884
sS'Tommy Gremillion'
p2885
Vcyclist
p2886
sS'Jack Carey'
p2887
VBen Blanchard
p2888
sS'Angela Kinlaw'
p2889
Vthe schools new ninth grade principal
p2890
sS'Raymond Brown'
p2891
VMembers
p2892
sS'McCormack Baron Salazar'
p2893
VHRI
p2894
sS'Carol Ahn Markowitz'
p2895
g6
sS'Sandra Cahill'
p2896
VTreasurer
p2897
sS'Shannon Bates'
p2898
VJindals press secretary
p2899
sS'Kevin Guitterrez'
p2900
Vthe groups president and chief operating officer
p2901
sS'Jeremy Epstein'
p2902
Vattorney
p2903
sS'Cathy Taylor'
p2904
VGusmans coordinator of the paid detail
p2905
sS'Doris Hicks'
p2906
Vchief executive officer of the schools
p2907
sS'Shane'
p2908
Vhttp://farm4.static.flickr.com/3285/3156133515_beaceb1776.jpg
p2909
sS'Tonya Jones'
p2910
Va nurse
p2911
sS'Katz-Levy'
p2912
VMs.
p2913
sS'DavidDurand'
p2914
g6
sS'Keeyana Dupre'
p2915
Vthe academys director of finance and operations
p2916
sS'Annetta Soldano'
p2917
VOperations Coordinator
p2918
sS'Paulette Guerra'
p2919
VDeslonde Street
p2920
sS'James LeBlanc'
p2921
Vsecretary of the department
p2922
sS'Grant Morris'
p2923
g6
sS'Dean M. Duplantier'
p2924
Varchitect
p2925
sS'Bill Aaron'
p2926
Vthe boards legal consultant
p2927
sS'Jerome Cosey'
p2928
Vaka rapper 5th Ward Weebie
p2929
sS'de Noel'
p2930
Va winter market
p2931
sS'Ann McDonald'
p2932
Vdirector of Parks and Parkways
p2933
sS'Richard Gorbaty'
p2934
Vjudge
p2935
sS'William Davis'
p2936
Vcommandant
p2937
sS'Harney'
p2938
Vway
p2939
sS'Jana Smith'
p2940
VDr.
p2941
sS'Wayne Camara'
p2942
g6
sS'Robert Adley'
p2943
VSen.
p2944
sS'Jennifer Duffy'
p2945
g6
sS'Larry Hammond'
p2946
Va volunteer with ACSA
p2947
sS'James Fulton'
p2948
VChoice CFO
p2949
sS'Lindsay Morton'
p2950
VWhole Foods
p2951
sS'Jean-Paul Hymel'
p2952
Vchairman
p2953
sS'Kathy Reidlinger'
p2954
Vthe schools chief executive
p2955
sS'Wade Rathke'
p2956
g6
sS'Catherine Pacyna'
p2957
g6
sS'Lynn Jenkins'
p2958
VFranklins director of admissions
p2959
sS'Shaun Rafferty'
p2960
VSecretary
p2961
sS'Marci Cornell-Feist'
p2962
g6
sS'Stephen Moret'
p2963
Vthe secretary of Louisiana Economic Development
p2964
sS'Carla Major'
p2965
Vboard member
p2966
sS'Ben Nevers'
p2967
VSen.
p2968
sS'Jennifer Schaye'
p2969
Vgeneral counsel for the Legislative Auditor
p2970
sS'Kristin Palmer'
p2971
Voutsider challenger
p2972
sS'Jeff Arnold'
p2973
VRep.
p2974
sS'Michaele Salahi'
p2975
VTareq
p2976
sS'Bob Kostelka'
p2977
VState Sen.
p2978
sS'Anita Dennis'
p2979
g6
sS'Ronicka Briscoe'
p2980
Vthe third-through-fifth grade chairperson
p2981
sS'Patricia Adams'
p2982
VBoard member
p2983
sS'Russell Brand'
p2984
Vactor
p2985
sS'Barbara Griffin'
p2986
Vsecretary
p2987
sS'Westley Bayas III'
p2988
g6
sS'Dan Shea'
p2989
VThe Advocates Baton Rouge-based general manager
p2990
sS'Brendell Deamer'
p2991
Va certified public accountant
p2992
sS'Michael Todd'
p2993
Vboard Chairman
p2994
sS'Keeanya Dupre'
p2995
Vdirector of finance and operations
p2996
sS'Stewart Juneau'
p2997
Vthe Ritz Carltons owner
p2998
sS'Douglas J. Meffert'
p2999
VAudubon Louisiana/National Audubon Society
p3000
sS'Charles Foti'
p3001
VSheriff
p3002
sS'Sandra Woodley'
p3003
Vpresident
p3004
sS'Conrad Appel'
p3005
VR-Metairie
p3006
sS'Mariah Banks'
p3007
Va 2013 graduate of Sci Academy
p3008
sS'Jolene Jeff'
p3009
VJolene
p3010
sS'Raashand Hamilton'
p3011
VMembers
p3012
sS'George Rodrigue'
p3013
Vartist
p3014
sS'Dave Norris'
p3015
g6
sS'Chris Broadwater'
p3016
VR-Hammond
p3017
sS'Rachel Billow'
p3018
VFood truck operator
p3019
sS'Kendall Petri'
p3020
VCEO
p3021
sS'Sheila Nelson'
p3022
Vprincipal for the lower school
p3023
sS'Sean Rafferty'
p3024
VSecretary
p3025
sS'James Henderson'
p3026
VJr.
p3027
sS'J.P. Morrell'
p3028
VD-New Orleans
p3029
sS'Claiborne Ave'
p3030
Vone that services the surrounding areas
p3031
sS'Joel Vilmenay'
p3032
Vpresident and general manager of WDSU-TV
p3033
sS'Ruth Kullman'
p3034
VTreasurer
p3035
sS'Charles Allen'
p3036
Vthe newly hired director
p3037
sS'Shelia Nelson'
p3038
VElementary School Principal
p3039
sS'Don Wheat'
p3040
Va certified public accountant with the firm
p3041
sS'Jade Russell'
p3042
VNuesslein Hebert
p3043
sS'Sidney James'
p3044
VMembers
p3045
sS'Benjamin Orillon'
p3046
Vchief administrative officer at the Lyce
p3047
sS'Margaret Nagle'
p3048
VGoetzees sister
p3049
sS'Joseph W. Gilyot III'
p3050
VAssistant Principal
p3051
sS'Len Davis'
p3052
VNOPD officer
p3053
sS'Jonathan Johnson'
p3054
Vhttp://lensnola.wpengine.netdna-cdn.com/wp-content/uploads/2015/05/Jonathan-Johnson.png
p3055
sS'Biagas'
p3056
VPrincipal Melrose
p3057
sS'Danatus King'
p3058
VNAACP president
p3059
sS'Amanda Golob'
p3060
g6
sS'C.B. Forgotston'
p3061
Va Hammond-based attorney who follows campaign finance
p3062
sS'Stacey Carter'
p3063
Va Crescent City leadership fellow
p3064
sS'Brandon Phenix'
p3065
Vdirector of blended learning
p3066
sS'Mary Lee Murphy'
p3067
VBoard member
p3068
sS'Michael Sartisky'
p3069
g6
sS'Ray Teddlie'
p3070
Vformer Gov. Kathleen Blancos
p3071
sS'Richard Diamond'
p3072
Va Times-Picayune executive responsible for N.O.net
p3073
sS'Kendall Wise'
p3074
g6
sS'Ollie Tyler'
p3075
VDeputy State Superintendent
p3076
sS'Woody Koppel'
p3077
VOrleans Parish school board member
p3078
sS'Shantrell Lewis'
p3079
g6
sS'Assistant Principal Dawn Collins'
p3080
Vher
p3081
sS'Jim Dukes'
p3082
VCourtney
p3083
sS'Noel Crump'
p3084
g6
sS'Freeman Matthews'
p3085
Van attorney for the sheriff
p3086
sS'Carolyn Gill-Jefferson'
p3087
VJudge
p3088
sS'Tom Gogola'
p3089
VThe Lens staff writer |
p3090
sS'Tubman'
p3091
Vthe organizations first charter school
p3092
sS'N. Rendon'
p3093
VAnn
p3094
sS'Tom Schedler'
p3095
VState
p3096
sS'Thomas Reese'
p3097
Vthe current chairman
p3098
sS'Marlon Defillo'
p3099
Vhead of the Public Integrity Bureau
p3100
sS'Hallie Hargett'
p3101
VTeachers
p3102
sS'Cameron Henry'
p3103
Vstate Rep.
p3104
sS'Kathleen Padian'
p3105
Vdeputy superintendent of Orleans Parish Schools
p3106
sS'Marullo'
p3107
VJudges
p3108
sS'Noel Cassanova'
p3109
VTraffic Court Clerk
p3110
sS'Eric Griggs'
p3111
Vfounder of the Broadmoor Basketball Club
p3112
sS'Seth Johnson'
p3113
Va spokesman for that agency
p3114
sS'Errol Williams'
p3115
VOrleans Parish Assessor
p3116
sS'Charlie Hadley'
p3117
Vtreasurer
p3118
sS'Erin Bendily'
p3119
g6
sS'Gloria Bingmon'
p3120
Va vice-president of Audubons Parent Teacher Association
p3121
sS'Ed Shanklin'
p3122
VChairman
p3123
sS'Eve Troeh'
p3124
Vnews director at WWNO-FM
p3125
sS'Mark Kay Parker'
p3126
Vboard president
p3127
sS'Sarah Stickney'
p3128
Vthe schools new director of development
p3129
sS'Peter Harding'
p3130
Vmembers
p3131
sS'Stan Sholtz'
p3132
Va special education teacher at the school
p3133
sS'Al Shaw'
p3134
Vnews applications developers atProPublica
p3135
sS'Sametta Brown'
p3136
VNew Beginnings chief executive officer
p3137
sS'Norris Babin'
p3138
g6
sS'Jolon McNeil'
p3139
g6
sS'Charles Varley'
p3140
Va parent
p3141
sS'Westley Bayas'
p3142
VChildren executive director
p3143
sS'Tyrone Ben'
p3144
Vthe newest board member
p3145
sS'Jaron Berliner'
p3146
VSpanish teacher
p3147
sS'Rick Conway'
p3148
VSecretary
p3149
sS'Roxanne Townsend'
p3150
Vchief executive officer of LSU Interim Hospital
p3151
sS'Brandy Smith'
p3152
Van external member of the finance committee
p3153
sS'Curtis Moret'
p3154
g6
sS'Dick Cheney'
p3155
VVice President
p3156
sS'Sarah Drew'
p3157
VLoyola University student
p3158
sS'Ben Marcovitz'
p3159
VCEO Collegiate Academies which operates Sci Academy
p3160
sS'Leslie Ellison'
p3161
VOrleans Parish School Board member
p3162
sS'Jacqueline Smith'
p3163
VClaire McDaniel
p3164
sS'Keith Twitchell'
p3165
g6
sS'Alysia Loshbaugh'
p3166
g6
sS'Blake Arcuri'
p3167
VAttorney
p3168
sS'Jo-Ann Wallace'
p3169
g6
sS'Justin Schmidt'
p3170
Vattorney
p3171
sS'Tenisha Marcel'
p3172
VSingletons upper-grade curriculum specialist
p3173
sS'Monica'
p3174
Vhttp://farm3.static.flickr.com/2033/3544886432_2f30567da3.jpg
p3175
sS'Leslie Jacobs'
p3176
g6
sS'Priscilla Wohlstetter'
p3177
g6
sS'Tania Moore'
p3178
VBoard treasurer
p3179
sS'Benita Scott'
p3180
g6
sS'Monroe St.'
p3181
g6
sS'Perkins'
p3182
VJared Frank
p3183
sS'N Claiborne'
p3184
Vhttp://farm4.static.flickr.com/3653/3380714389_24d8128ba1.jpg
p3185
sS'Moran'
p3186
VMs.
p3187
sS'Simonne Robinson'
p3188
VPrincipal Charmaine Robertson
p3189
sS'Raymond Coach Blanco'
p3190
Vhusband of the then-governor
p3191
sS'Thomas Klinger'
p3192
VDr.
p3193
sS'Liljana Johnson'
p3194
VAndrew Ward Graf Mayer Dwyer Hughes Couhig
p3195
sS'Hal Brown'
p3196
VPresident
p3197
sS'Paul Barron'
p3198
Vmembers
p3199
sS'Cecilia Garcia'
p3200
Vthe schools principal
p3201
sS'Wanda Anderson-Guillaume'
p3202
Vboard vice president
p3203
sS'Jim Letten'
p3204
VBoard members Helen Berrigan
p3205
sS'Daniel Cazenave'
p3206
g6
sS'Avione Pichon'
p3207
Va practicing attorney
p3208
sS'Parkerson'
p3209
VincludedAlice
p3210
sS'Holy Rosary'
p3211
g6
sS'Scott Flowers'
p3212
VEdisons vice president of education services
p3213
sS'Jeff Angers'
p3214
Vone of the four new members
p3215
sS'Tracie Washington'
p3216
Vthe lawyer for Friends of King
p3217
sS'Matt Coman'
p3218
Vway.Gambit Prosecutors
p3219
sS'Kenneth Ducote'
p3220
Va facilities consultant advising the board
p3221
sS'Robert Lupo'
p3222
Vthe Lakeview resident behind Fix My Streets
p3223
sS'April Bedford'
p3224
Vmembers
p3225
sS'James Lukens'
p3226
VSciAcademy teacher
p3227
sS'Ronald McClain'
p3228
VCommissioner
p3229
sS'Adrienne Shulman'
p3230
Vboard member
p3231
sS'Johnny Berthelot'
p3232
VR-Gonzales
p3233
sS'Jay Lapeyre'
p3234
Vchairman of the nominating committee
p3235
sS'Rhenette Tobias'
p3236
VAdministration
p3237
sS'Chris Young'
p3238
g6
sS'Annie Balart Michaels'
p3239
Vboard members Elizabeth Rhodes
p3240
sS'Joseph Gilyot'
p3241
Vassistant principal
p3242
sS'Larry Kullman'
p3243
VBoard members Alison Hartman
p3244
sS'Barack Obama'
p3245
VPresident
p3246
sS'Nelson'
p3247
VMembers
p3248
sS'William Bubba Rasberry Jr.'
p3249
Vthe regents chairman
p3250
sS'Adrian Morgan'
p3251
VChief Operating Officer
p3252
sS'Eugene Green'
p3253
VDistrict C candidate Carlos Williams
p3254
sS'Ann Meese'
p3255
Vschool administrator
p3256
sS'Gail Naquin'
p3257
Vspecial-education director
p3258
sS'Christopher Dalbom'
p3259
Vprogram manager at the institute
p3260
sS'Emily Wolff'
p3261
Vthe schools director of community integration
p3262
sS'Ben Blanchard'
p3263
Vboard member
p3264
sS'Pierre Capdau'
p3265
Vthe networks
p3266
sS'Ronnie Seaton'
p3267
g6
sS'Juzar Ali'
p3268
VLSU hospital board member Dr.
p3269
sS'Ann Benoit'
p3270
g6
sS'Ellery Guillory'
p3271
VR-Opelousas
p3272
sS'George Rabb'
p3273
Vtreasurer
p3274
sS'John McDonogh'
p3275
Vpolling
p3276
sS'James Oberstar'
p3277
VD-Minn.
p3278
sS'Liza Thomas'
p3279
VPTA President
p3280
sS'Shelia Hebert'
p3281
Vprincipal and vice principal
p3282
sS'Samaritans Feet'
p3283
Van international organization that donates shoes
p3284
sS'Paul Rainwater'
p3285
Va state entity with a mission
p3286
sS'Debbra Lindo'
p3287
VKatrise Perera
p3288
sS'Janaya Williams'
p3289
Vour audio producer
p3290
sS'O.P. Walker'
p3291
VEisenhower
p3292
sS'Matt Felder'
p3293
Vthe public information officer for the hospital
p3294
sS'James Watson'
p3295
VBoard President
p3296
sS'Eric Granderson'
p3297
Vthe citys director of local government affairs
p3298
sS'Fred Mills Jr.'
p3299
Vdrug court SB state Sen.
p3300
sS'Keith Pettigrew'
p3301
g6
sS'John Cornyn'
p3302
VSenator
p3303
sS'Jimmy Field'
p3304
VCampbells biggest supporter
p3305
sS'Jean Armstrong'
p3306
g6
sS'Leslie Bouie'
p3307
Vmembers
p3308
sS'Tony Speier'
p3309
VDr.
p3310
sS'Marika Barto'
p3311
Van Algebra I teacher
p3312
sS'Amanda Aiken'
p3313
g6
sS'Kendall'
p3314
Vson
p3315
sS'Shelby McKenzie'
p3316
Van outside attorney hired by LSU
p3317
sS'James LaPorte'
p3318
Vmanaging director of Ericksen Krentel & LaPorte
p3319
sS'Nicole Saulny'
p3320
Va former division head at Lafayette
p3321
sS'Drue Winters'
p3322
Van attorney with Gov. Bobby Jindals office
p3323
sS'Joseph Byrd'
p3324
VBoard vice president
p3325
sS'Karen Harris'
p3326
VIm not always in agreement
p3327
sS'Linda Johnson'
p3328
Vboard member
p3329
sS'Allen Usry'
p3330
Vlawyer
p3331
sS'Stephen Osborn'
p3332
VChief Operations Officer
p3333
sS'Paul Sens'
p3334
Vlongtime friends
p3335
sS'Charley Hadley'
p3336
VBoard treasurer
p3337
sS'Beverly Matheney'
p3338
g6
sS'Michael Glasser'
p3339
VCapt.
p3340
sS'Josh Fertitta'
p3341
Vthe schools director of development
p3342
sS'Jeffrey Sadow'
p3343
Va professor of political science
p3344
sS'Kevin Davis'
p3345
VCEO of the Investigative News Network
p3346
sS'Gregory Phillips'
p3347
Vboards chief operating officer
p3348
sS'Sean Hudson'
p3349
Vthe charter networks tech leader
p3350
sS'Nolan Marshall'
p3351
VJr.
p3352
sS'Tiranus Edwards'
p3353
VMiddle School Principal
p3354
sS'Gregory Miller'
p3355
VR-Destrehan
p3356
sS'George Saad'
p3357
g6
sS'Robert Mann'
p3358
Vhttp://lensnola.wpengine.netdna-cdn.com/wp-content/uploads/2012/12/bobmann-e1356059500526-266x157.jpg
p3359
sS'Blake Oakes'
p3360
Vboard-member
p3361
sS'Denny LeBoeuf'
p3362
g6
sS'Paige Saleun'
p3363
Vboard member
p3364
sS'Chris Martinez'
p3365
g6
sS'Devona Dolliole'
p3366
VLandrieus communications director
p3367
sS'Ernest Charles'
p3368
g6
sS'Clay Schexnayder'
p3369
Vboth Republicans from Gonzales
p3370
sS'Ive'
p3371
Vperson
p3372
sS'Sean Berner'
p3373
Va financial consultant to the board
p3374
sS'Gary Ostoske'
p3375
VBoard member
p3376
sS'Rosanna Cruz'
p3377
g6
sS'Jim Richardson'
p3378
Van economics professor at Louisiana State University
p3379
sS'Penny Poole'
p3380
Van independent caterer
p3381
sS'Monique Hicks-Cook'
p3382
Vdaughter
p3383
sS'Margaret Parker'
p3384
VMother
p3385
sS'Joseph Basel'
p3386
VOKeefe
p3387
sS'Tim -LSB- Doody'
p3388
Vpresident of the authoritys board
p3389
sS'Einstein'
p3390
Van Orleans Parish School Board charter
p3391
sS'Randy Neugebauer RTexas'
p3392
VU.S. Rep.
p3393
sS'John Jones'
p3394
Vvice chairman
p3395
sS'Marcia St. Martin'
p3396
g6
sS'Janet Speyrer'
p3397
g6
sS'David Parrish'
p3398
g6
sS'David Eichenthal'
p3399
Va contracted financial consultant for the city
p3400
sS'Ivor van Heerden'
p3401
Vhttp://lensnola.wpengine.netdna-cdn.com/wp-content/uploads/2013/02/ivor-van-heerden.jpg
p3402
sS'Jen Medbery'
p3403
Vboard member
p3404
sS'Davis Layne'
p3405
g6
sS'Diana Bajoie'
p3406
VCouncilwoman
p3407
sS'Anne Normann'
p3408
Vthe networks development director
p3409
sS'FEMA'
p3410
VMr.
p3411
sS'Jaime Collins'
p3412
Va local lawyer
p3413
sS'Neveu'
p3414
VDillard Universitys nominee
p3415
sS'Suzanne Evangelista'
p3416
VJacobsen
p3417
sS'James OKeefe'
p3418
Vgonzo journalist
p3419
sS'Heather Koons'
p3420
Vdirector
p3421
sS'Jeff Teague'
p3422
Vhead of the nominating committee
p3423
sS'Shanda Gentry'
p3424
VPrincipal
p3425
sS'Charlie Melancon'
p3426
VD-Napoleonville
p3427
sS'Cedric Grant'
p3428
VSewerage Board Director
p3429
sS'Christina Stephens'
p3430
g6
sS'Hector Ulloa'
p3431
g6
sS'Christina Ursin-Schlaudecker'
p3432
Vdaughter of Gerald Ursin
p3433
sS'Rafael Goyeneche'
p3434
VMetropolitan Crime Commission boss
p3435
sS'Jerry N. Jones'
p3436
g6
sS'Elfie Chynet'
p3437
VDirector of the French school
p3438
sS'Garry Flot'
p3439
Vpolice spokesman
p3440
sS'Tod Chambers'
p3441
g6
sS'Tara Carter Hernandez'
p3442
Va former board member
p3443
sS'Alvin Jones'
p3444
Va 1964 graduate of Carver High School
p3445
sS'Melvin Davis'
p3446
Va certified public accountant with the firm
p3447
sS'Josh Levy'
p3448
g6
sS'Helen Berrigan'
p3449
VMembers
p3450
sS'Chantelle Pierre'
p3451
Vdirector of development
p3452
sS'Marsha Broussard'
p3453
VDr.
p3454
s.