(dp1
S'Public Affairs Research Council'
p2
I0
sS'Louisiana Housing Finance Authority'
p3
I1
sS'Finance Committee'
p4
I2
sS'Baptist Community Ministries'
p5
I3
sS'U.S. Fifth Circuit Court of Appeals'
p6
I417
sS'Flood Protection Authority'
p7
I4
sS'Public Affairs Research Council of Louisiana'
p8
I5
sS'New Orleans Musical Legends'
p9
I6
sS'Southerns'
p10
I7
sS'Morris Jeff'
p11
I96
sS'Cypress Realty Partners'
p12
I8
sS'Federal Emergency Management Agency'
p13
I9
sS'Municipal Court'
p14
I10
sS'KIPP New Orleans Leadership Academy'
p15
I11
sS'New Orleans Police and Justice Foundation'
p16
I12
sS'Lyce Franais de la Nouvelle-Orlans'
p17
I13
sS'Planning Commission'
p18
I14
sS'SPS'
p19
I15
sS'Orleans Parish Law Enforcement District'
p20
I16
sS'First Presbyterian Church'
p21
I428
sS'Customs Enforcement'
p22
I17
sS'Easton'
p23
I18
sS'HANO'
p24
I19
sS'Tulane'
p25
I20
sS'Krupp'
p26
I21
sS'KIPPs'
p27
I22
sS'Supreme Court'
p28
I23
sS'Coast Guard'
p29
I153
sS'Governance Committee'
p30
I290
sS'Collegiate Academies'
p31
I26
sS'Education Department'
p32
I495
sS'Legislative Black Caucus'
p33
I28
sS'New Orleans Traffic Court'
p34
I29
sS'ACLU'
p35
I30
sS'Ways and Means'
p36
I31
sS'Criminal Justice and Budget'
p37
I73
sS'Supreme Courts'
p38
I33
sS'CMO'
p39
I34
sS'Legislative Fiscal Office'
p40
I35
sS'The Lens'
p41
I36
sS'Lycee'
p42
I37
sS'Entergy'
p43
I38
sS'John McDonogh Senior High School'
p44
I39
sS'State'
p45
I40
sS'state Division of Administration'
p46
I41
sS'Drug Enforcement Administration'
p47
I44
sS'Tulane University'
p48
I45
sS'Lyces'
p49
I46
sS'Appropriations Committee'
p50
I47
sS'HUD'
p51
I48
sS'Robinsons'
p52
I49
sS'Algiers Development District'
p53
I50
sS'Senate Finance Committee'
p54
I193
sS'Ford'
p55
I52
sS'Orleans Parish Schools'
p56
I53
sS'Recovery School District'
p57
I302
sS'Reed'
p58
I55
sS'Benjamin Franklin High Schools'
p59
I56
sS'Partnership for Assessment of Readiness for College and Careers'
p60
I57
sS'Audubon Charter School'
p61
I59
sS'Harrahs Casino'
p62
I60
sS'YMCA'
p63
I384
sS'NFL'
p64
I62
sS'Martin Behrman Charter School Academy of Creative Arts and Sciences'
p65
I63
sS'Budget'
p66
I64
sS'Martin Behrman Charter School'
p67
I65
sS'Green'
p68
I66
sS'New Orleans Charter Science and Math High School'
p69
I67
sS'Morris Jeff Community School'
p70
I68
sS'University of New Orleans'
p71
I69
sS'Sylvanie Williams College Prep'
p72
I70
sS'Associates'
p73
I71
sS'Austins'
p74
I74
sS'NOPD'
p75
I75
sS'Dillard University'
p76
I76
sS'DOJ'
p77
I77
sS'Literacy Charter School'
p78
I78
sS'D-Baton Rouge'
p79
I79
sS'Oprah Winfrey Network'
p80
I80
sS'Southern University'
p81
I81
sS'Medard H. Nelson Charter School'
p82
I82
sS'New Beginnings Schools Foundation'
p83
I83
sS'City Planning Commission'
p84
I199
sS'A.P. Tureaud Elementary'
p85
I84
sS'Crocker Arts and Technology School'
p86
I85
sS'Edgar P. Harney Spirit of Excellence Academy'
p87
I86
sS'Browns'
p88
I87
sS'R-Baton Rouge'
p89
I88
sS'Academic Excellence Committee'
p90
I89
sS'Committee for a Better New Orleans'
p91
I90
sS'Orleans Public Education Network'
p92
I412
sS'WWL-TV'
p93
I91
sS'NOLA'
p94
I92
sS'Lens'
p95
I93
sS'New Beginnings School Foundation'
p96
I94
sS'Rosary Catholic Church'
p97
I95
sS'Recovery School'
p98
I43
sS'Charity'
p99
I97
sS'National Wildlife Federation'
p100
I577
sS'International School'
p101
I98
sS'Reed Elementary'
p102
I99
sS'Xavier University'
p103
I101
sS'Crescent Citys'
p104
I102
sS'First NBC'
p105
I103
sS'Alice M. Harte Charter School'
p106
I104
sS'American Civil Liberties Union'
p107
I105
sS'St. Tammany Sheriffs Office'
p108
I106
sS'Sojourner Truth'
p109
I107
sS'Nola Business Alliance'
p110
I444
sS'Gentilly Terrace'
p111
I108
sS'Lake Forest Elementary Charter School'
p112
I58
sS'Benjamin Franklin High School'
p113
I110
sS'Samuel J. Green Charter School'
p114
I112
sS'Police Department'
p115
I113
sS'Sojourner Truth Academy'
p116
I114
sS'New Orleans Advocate'
p117
I115
sS'Juvenile Court'
p118
I116
sS'Elementary Charter School'
p119
I117
sS'Warren Easton Charter High School'
p120
I119
sS'Morris Jeff Community Schools'
p121
I120
sS'Algiers Technology Academy'
p122
I121
sS'KIPP New Orleans'
p123
I511
sS'Times-Picayune'
p124
I123
sS'New Orleans Police'
p125
I124
sS'Orleans Parish Sheriffs Office'
p126
I249
sS'Lake Area New Tech Early College High School'
p127
I126
sS'Crescent Leadership Academy'
p128
I127
sS'Broadmoor Charter School Board'
p129
I128
sS'Louisiana Supreme Court'
p130
I129
sS'Flood Protection Authoritys'
p131
I147
sS'Police Association of New Orleans'
p132
I131
sS'Algiers Charter School Association'
p133
I132
sS'Medley'
p134
I133
sS'Delgados'
p135
I134
sS'Benjamin Banneker Elementary School'
p136
I135
sS'Hall of Fame'
p137
I136
sS'Carr , Riggs & Ingram'
p138
I137
sS'Walton Foundation'
p139
I138
sS'RSD'
p140
I139
sS'Southern Media & Opinion Research'
p141
I140
sS'Edison Learning'
p142
I141
sS'Center for Reform of School Systems'
p143
I142
sS'Friends of King Schools'
p144
I557
sS'CODOFIL'
p145
I143
sS'New Orleans Recreation Development Commission'
p146
I288
sS'Kings'
p147
I145
sS'Catholic'
p148
I72
sS'NOAH'
p149
I148
sS'City Council District C'
p150
I149
sS'George Washington Carver Collegiate Academy'
p151
I150
sS'Paul Habans Charter School'
p152
I151
sS'Louisiana Board of Elementary and Secondary Education'
p153
I152
sS'Orleans Parish School'
p154
I24
sS'Sci High'
p155
I154
sS'Cypress'
p156
I155
sS'Louisiana Department of Corrections'
p157
I156
sS'Martin Luther King High School'
p158
I157
sS'SABIS'
p159
I125
sS'New Orleans Civil Service Commission'
p160
I518
sS'Walton Family Foundation'
p161
I159
sS'New Orleans Tourism and Marketing Corp.'
p162
I160
sS'New Orleans Culinary and Hospitality Institute'
p163
I161
sS'Firstline Schools , Inc.'
p164
I162
sS'Mildred Osborne Charter School'
p165
I163
sS'Office of Community Development'
p166
I164
sS'Arts Council'
p167
I165
sS'Civil Rights Division'
p168
I166
sS'City Council Budget Committee'
p169
I167
sS'U.S. Department of Justice'
p170
I168
sS'Internal Revenue Service'
p171
I169
sS'Common Core'
p172
I170
sS'DBE'
p173
I171
sS'JMAC'
p174
I172
sS'Council'
p175
I173
sS'Orleans Public Defenders Office'
p176
I174
sS'Saints'
p177
I175
sS'Public Works'
p178
I176
sS'Miller-McCoy'
p179
I177
sS'United Teachers of New Orleans'
p180
I346
sS'Morrells'
p181
I178
sS'Southeast Louisiana Flood Protection Authority East'
p182
I179
sS'RTA'
p183
I180
sS'Judicial Building Commission'
p184
I181
sS'Recovery School Districts'
p185
I183
sS'Jagers'
p186
I184
sS'National Oceanic and Atmospheric Administration'
p187
I185
sS'New Orleans Bar Association Campaign Finance Report'
p188
I186
sS'New Orleans Public Library'
p189
I187
sS'MCPA'
p190
I188
sS'School Board'
p191
I189
sS'ENCORE'
p192
I190
sS'GCA'
p193
I191
sS'RFP'
p194
I192
sS'Louisiana Legislature'
p195
I51
sS'ENCORE Academy'
p196
I194
sS'Department of Public Safety and Corrections'
p197
I195
sS'Office of Parental Options'
p198
I196
sS'Republican Governors Association'
p199
I429
sS'state Department of Education'
p200
I197
sS'Lagniappe Academy'
p201
I198
sS'John Dibert School'
p202
I32
sS'New Orleans Military'
p203
I200
sS'Sheriffs Office'
p204
I201
sS'McDonogh City Park Academy'
p205
I202
sS'Standard & Poors'
p206
I203
sS'International High School of New Orleans'
p207
I204
sS'NASA'
p208
I205
sS'Pride College Prep'
p209
I206
sS'Achievement Network'
p210
I207
sS'Lake Borgne Levee District'
p211
I208
sS'SciTech Academy'
p212
I209
sS'U.S. Department of Housing and Urban Development'
p213
I210
sS'Audubon'
p214
I413
sS'Karran Harper Royal'
p215
I212
sS'Disadvantaged Business Enterprise'
p216
I579
sS'Civil Service Department'
p217
I214
sS'ISL'
p218
I215
sS'Delgado Community College'
p219
I216
sS'House Appropriations Committee'
p220
I217
sS'James Singleton Charter School'
p221
I218
sS'Miller-McCoy Academy'
p222
I219
sS'Congress'
p223
I220
sS'CDBG'
p224
I221
sS'Criminal District Court'
p225
I222
sS'Office of Police Secondary Employment'
p226
I223
sS'Delta'
p227
I224
sS'Medicaid'
p228
I225
sS'National Institute of Justice'
p229
I415
sS'Metropolitan Crime Commission'
p230
I227
sS'Judicial Candidate Information Form'
p231
I229
sS'Neighborhood Conservation District Committee'
p232
I230
sS'Finance and Operations'
p233
I231
sS'Civil Service'
p234
I232
sS'Joseph A. Craig Charter School'
p235
I233
sS'Bricolage Academy'
p236
I234
sS'New Orleans Fire Department'
p237
I235
sS'Inc.'
p238
I236
sS'UNO'
p239
I237
sS'FirstLine Schools'
p240
I238
sS'Better Choice Foundation'
p241
I239
sS'Sears'
p242
I240
sS'CRA'
p243
I241
sS'Maritime Academy'
p244
I242
sS'Archon'
p245
I243
sS'French American International School'
p246
I244
sS'Southeast Louisiana Flood Protection Authority-West'
p247
I245
sS'Gentilly Terrace Charter School'
p248
I246
sS'Court'
p249
I247
sS'Army Corps of Engineers'
p250
I248
sS'Republican Party'
p251
I250
sS'L.B. Landry High School'
p252
I251
sS'Office of Supplier Diversity'
p253
I252
sS'New Orleans Regional Transit Authority'
p254
I253
sS'Cowen Institute'
p255
I254
sS'NOMMA'
p256
I530
sS'Jindals'
p257
I531
sS'Einstein Charter School'
p258
I257
sS'Langston Hughes'
p259
I258
sS'LSU Interim Hospital'
p260
I259
sS'Lafayette Academy Charter School'
p261
I260
sS'International School of Louisianas'
p262
I261
sS'Legislature'
p263
I262
sS'Hughes'
p264
I263
sS'Public Defenders Office'
p265
I264
sS'Louisiana Municipal Association'
p266
I265
sS'New Orleans Police Departments'
p267
I266
sS'U.S. Justice Department'
p268
I267
sS'Public Strategies Group'
p269
I268
sS'Jefferson Parish'
p270
I269
sS'Paul Habans Elementary School'
p271
I270
sS'Fannie C. Williams'
p272
I272
sS'Housing Authority of New Orleans'
p273
I273
sS'City Park Academys'
p274
I274
sS'GOP'
p275
I275
sS'Homer A. Plessy Community School'
p276
I276
sS'Schroder'
p277
I277
sS'Google'
p278
I278
sS'Fraternal Order of Police'
p279
I279
sS'Harriet Tubman Charter School'
p280
I280
sS'Audubon Nature Institute'
p281
I281
sS'Edna Karr Charter High School'
p282
I282
sS'New Orleans Police Department'
p283
I283
sS'John Dibert Community School'
p284
I284
sS'International High School'
p285
I533
sS'Lagniappe Academies'
p286
I286
sS'White House'
p287
I287
sS'Success Preparatory Academy'
p288
I146
sS'Guidrys'
p289
I289
sS'BESE'
p290
I25
sS'McDonogh City Park Academys'
p291
I291
sS'New Orleans College Prep'
p292
I292
sS'Parkers'
p293
I293
sS'New Orleans College Preparatory Academies'
p294
I294
sS'NET Charter High School'
p295
I535
sS'Encore Academy'
p296
I296
sS'Treme Charter School Association'
p297
I297
sS'Campbells'
p298
I298
sS'Friends of Kings'
p299
I299
sS'George Washington Carver High School'
p300
I300
sS'Metro Disposal'
p301
I301
sS'LSU'
p302
I54
sS'Collegiate Academy'
p303
I303
sS'Strategic Alliance Partners'
p304
I304
sS'Traffic Court'
p305
I305
sS'New Orleans Federal Alliance'
p306
I306
sS'Enron Energy Services'
p307
I307
sS'Trem Charter School Association'
p308
I308
sS'Landrys'
p309
I310
sS'World Trade Center'
p310
I311
sS'Vera Institute of Justice'
p311
I312
sS'Legislatures'
p312
I313
sS'Sizeler'
p313
I314
sS'Capital One-New Beginnings Charter School Network'
p314
I315
sS'Office of Juvenile Justice'
p315
I316
sS'IHS'
p316
I317
sS'Louisiana Artists Guild'
p317
I319
sS'NORA'
p318
I320
sS'Housing Authority'
p319
I321
sS'House'
p320
I541
sS'District Attorneys Office'
p321
I324
sS'Dryades YMCA'
p322
I325
sS'New Orleans Workers Center for Racial Justice'
p323
I326
sS'KIPP Renaissance High School'
p324
I327
sS'TRSL'
p325
I328
sS'Press Club'
p326
I329
sS'McDonogh'
p327
I330
sS'Robert Russa Moton Charter School'
p328
I331
sS'Louisiana Department of Education'
p329
I332
sS'EMS'
p330
I333
sS'Schaumburg Elementary'
p331
I334
sS'WWNO'
p332
I335
sS'Budget Committee'
p333
I144
sS'Murray Henderson Elementary'
p334
I336
sS'New Orleans Coalition'
p335
I337
sS'American Federation of Teachers'
p336
I338
sS'Louisiana Budget Project'
p337
I339
sS'MFP'
p338
I340
sS'GT Asset Management'
p339
I341
sS'Harvard'
p340
I342
sS'Sewerage & Water Board'
p341
I343
sS'Langston Hughes Academy'
p342
I118
sS'King'
p343
I345
sS'Benjamin E. Mays Preparatory School'
p344
I42
sS'FOX'
p345
I348
sS'Laurel St. Help'
p346
I347
sS'Warren Easton Charter Foundation'
p347
I349
sS'Civil Service Commission'
p348
I350
sS'Louisiana Association of Business and Industry'
p349
I545
sS'OSHA'
p350
I352
sS'House Democratic Caucus'
p351
I353
sS'Medard Nelson Charter School'
p352
I354
sS'McDonald'
p353
I355
sS'state Board of Elementary and Secondary Education'
p354
I356
sS'MOU'
p355
I357
sS'Eastbank Collaborative of Charter Schools'
p356
I358
sS'Hes'
p357
I359
sS'Reporters Committee for Freedom of the Press'
p358
I360
sS'Board'
p359
I361
sS'Health Department'
p360
I362
sS'New Orleans Charter Schools Foundation'
p361
I363
sS'Department of Education'
p362
I364
sS'Redevelopment Authority'
p363
I365
sS'Associated Press'
p364
I366
sS'Akili Academy'
p365
I367
sS'ARAMARK'
p366
I368
sS'HRI'
p367
I425
sS'LFNO'
p368
I369
sS'City Park Academy'
p369
I370
sS'Crescent City'
p370
I371
sS'Columbia University'
p371
I372
sS'Andrew Wilson Charter School'
p372
I373
sS'Louisiana Housing Finance Agency'
p373
I374
sS'Mardi Gras'
p374
I445
sS'Sarah T. Reed High School'
p375
I376
sS'Division of Administration'
p376
I378
sS'Algiers Charter Schools Association'
p377
I379
sS'Lyce Franais'
p378
I380
sS'James M. Singleton Charter School'
p379
I381
sS'CDC'
p380
I382
sS'VAYLA'
p381
I383
sS'Esperanza Charter School'
p382
I61
sS'Campbell'
p383
I385
sS'Charter School Reporting Corps'
p384
I555
sS'Arthur Ashe Charter School'
p385
I387
sS'Office of Inspector General'
p386
I534
sS'Louisiana Recovery Authority'
p387
I389
sS'O. Perry Walker High School'
p388
I390
sS'EIS'
p389
I391
sS'Frantz Elementary'
p390
I392
sS'New York Times'
p391
I393
sS'Central Business District'
p392
I394
sS'Attorney Generals Office'
p393
I395
sS'NOCP'
p394
I396
sS'Republican'
p395
I344
sS'Louisiana Weekly'
p396
I397
sS'Edna Karr High School'
p397
I398
sS'Southern Media'
p398
I399
sS'Lafayette Academy'
p399
I477
sS'Lycee Francais'
p400
I400
sS'Office of Neighborhood Engagement'
p401
I401
sS'Department of Revenue'
p402
I402
sS'NOLA for Life Fund'
p403
I403
sS'Langston Hughes Academy Charter School'
p404
I404
sS'KIPP Central City Academy'
p405
I405
sS'Phillis Wheatley Elementary School'
p406
I406
sS'Roch-Hicks'
p407
I407
sS'IRS'
p408
I408
sS'House Ways and Means Committee'
p409
I409
sS'TCSA'
p410
I410
sS'Public Integrity Bureau'
p411
I318
sS'UTNO'
p412
I182
sS'JCC'
p413
I211
sS'Entergy New Orleans'
p414
I588
sS'NAACP'
p415
I414
sS'Edward Hynes Charter School'
p416
I226
sS'Social Security'
p417
I416
sS'U.S. Army Corps of Engineers'
p418
I309
sS'Criminal Justice Committee'
p419
I418
sS'Senate'
p420
I419
sS'Vera Institute'
p421
I420
sS'KIPP Central City Primary'
p422
I421
sS'Dwight D. Eisenhower Academy of Global Studies'
p423
I423
sS'Coroners Office'
p424
I424
sS'ExxonMobil'
p425
I271
sS'Charity Hospital'
p426
I426
sS'Host Committee'
p427
I427
sS'Public Service Commission'
p428
I322
sS'ARISE Academy'
p429
I213
sS'Fannie C. Williams Charter School'
p430
I430
sS'Orleans Parish'
p431
I431
sS'Department of Public Works'
p432
I432
sS'Public Charter School Program'
p433
I433
sS'BP'
p434
I434
sS'Archon Information Systems'
p435
I435
sS'Iberia Bank'
p436
I436
sS'EPA'
p437
I437
sS'Friends of King'
p438
I438
sS'KIPP New Orleans Schools'
p439
I439
sS'KIPP Believe'
p440
I440
sS'Loyola'
p441
I441
sS'Advocates for Academic Excellence in Education'
p442
I442
sS'Justice'
p443
I443
sS'Orleans Parish Prison'
p444
I422
sS'Sci Academy'
p445
I375
sS'DOC'
p446
I446
sS'Cohen College Prep'
p447
I447
sS'Historic District Landmarks Commission'
p448
I448
sS'Louisiana Department of Public Safety and Corrections'
p449
I449
sS'International Business and Education'
p450
I388
sS'U.S. Department of Education'
p451
I451
sS'Firstline Schools'
p452
I452
sS'Department of Justice'
p453
I453
sS'French Market Corporation'
p454
I454
sS'Orleans Parish School Board'
p455
I455
sS'Fifth Circuit'
p456
I456
sS'Workers Center'
p457
I457
sS'Crocker College Prep'
p458
I458
sS'Orleans Parish School District'
p459
I459
sS'Board of Elementary and Secondary Education'
p460
I460
sS'House of Detention'
p461
I377
sS'House Education Committee'
p462
I462
sS'Charter School Development Corp.'
p463
I463
sS'Gulf Restoration Network'
p464
I464
sS'Metros'
p465
I465
sS'Orleans Parish Communication District'
p466
I466
sS'Scheuermann & Jones'
p467
I467
sS'New Orleans Convention and Visitors Bureau'
p468
I468
sS'John McDonogh'
p469
I469
sS'ReNEW Accelerated High School'
p470
I470
sS'Convention Center'
p471
I471
sS'Governors Office of Homeland Security'
p472
I472
sS'Ethics Board'
p473
I473
sS'Commission'
p474
I474
sS'Morris Jeff Association of Educators'
p475
I475
sS'Ben Franklin High School'
p476
I476
sS'Louisiana State Police'
p477
I461
sS'U.S. District Court'
p478
I478
sS'Ehrhardt Group'
p479
I479
sS'PTO'
p480
I480
sS'New Orleans Redevelopment Authority'
p481
I481
sS'Bureau of Governmental Research'
p482
I482
sS'Postlethwaite & Netterville'
p483
I483
sS'Orleans Parish School Boards'
p484
I484
sS'Tricentennial Consortium'
p485
I574
sS'Audubon Place'
p486
I486
sS'Intuit'
p487
I487
sS'PTA'
p488
I488
sS'Choice Foundation'
p489
I489
sS'Facebook'
p490
I490
sS'City Attorneys Office'
p491
I491
sS'Treme'
p492
I492
sS'LLC'
p493
I493
sS'Southeast Louisiana Flood Protection Authority-East'
p494
I590
sS'KIPP McDonogh'
p495
I494
sS'Orleans Parish Sheriffs'
p496
I27
sS'Lake Forest Elementary'
p497
I496
sS'Louisiana Board of Ethics'
p498
I497
sS'Louisiana Department of Educations'
p499
I498
sS'City Councils Criminal Justice Committee'
p500
I499
sS'Einstein Charter Schools'
p501
I500
sS'Preparatory High School'
p502
I501
sS'Elementary School'
p503
I502
sS'Tulane Institute'
p504
I503
sS'Aramark'
p505
I504
sS'Southern Poverty Law Center'
p506
I450
sS'Batiste Cultural Arts Academy'
p507
I506
sS'Texas Tribune'
p508
I507
sS'Marco Outdoor Advertising'
p509
I508
sS'Intercultural Charter School'
p510
I509
sS'International School of Louisiana'
p511
I510
sS'Mayors Office'
p512
I122
sS'Chevron'
p513
I130
sS'John McDonogh High School'
p514
I514
sS'Board of Zoning Adjustments'
p515
I515
sS'Revenue Department'
p516
I516
sS'Loyola University'
p517
I517
sS'Hawks'
p518
I158
sS'Criminal Justice Working Group'
p519
I519
sS'U.S. Supreme Court'
p520
I520
sS'Minimum Foundation Program'
p521
I521
sS'St. Bernard Parish Council'
p522
I522
sS'KIPP Believe College Prep'
p523
I523
sS'Uptown Messenger'
p524
I524
sS'Finance'
p525
I525
sS'The Times-Picayune'
p526
I526
sS'Lusher Charter School'
p527
I527
sS'Baton Rouge'
p528
I528
sS'Greater New Orleans Foundation'
p529
I411
sS'Orleans Parish Civil District Court'
p530
I529
sS'FirstLine'
p531
I255
sS'Esperanza'
p532
I256
sS'New Orleans College Preps'
p533
I532
sS'Charter School'
p534
I285
sS'Lushers'
p535
I295
sS'Jefferson Parish School Board'
p536
I536
sS'John A. Shaw Elementary School'
p537
I537
sS'George Washington Carver Preparatory Academy'
p538
I538
sS'New Orleans Public Schools'
p539
I539
sS'Bell'
p540
I540
sS'Louisiana Economic Development'
p541
I323
sS'Department of Corrections'
p542
I542
sS'KIPP'
p543
I543
sS'St. Bernard Parish'
p544
I544
sS'Wilsons'
p545
I351
sS'FBI'
p546
I546
sS'Board of Regents'
p547
I547
sS'Louisiana Association of Public Charter Schools'
p548
I548
sS'Sewerage & Water Board of New Orleans'
p549
I549
sS'Arise Academy'
p550
I550
sS'New Orleans City Council'
p551
I551
sS'Regional Transit Authority'
p552
I552
sS'Orleans Parish Prison Reform Coalition'
p553
I553
sS'Office Depot'
p554
I554
sS'Hammonds Transportation'
p555
I386
sS'Aesha Rasheed'
p556
I556
sS'City Hall'
p557
I109
sS'Coastal Protection and Restoration Authority'
p558
I558
sS'FEMA'
p559
I559
sS'City Council'
p560
I560
sS'Crescent City Schools'
p561
I561
sS'House of Representatives'
p562
I562
sS'Orleans Parish Assessors Office'
p563
I563
sS'John McDonogh Advisory Committee'
p564
I564
sS'Governmental Affairs Committee'
p565
I565
sS'Franklin'
p566
I566
sS'ACSA'
p567
I567
sS'Water Board'
p568
I568
sS'New Orleans Charter Science & Mathematics High School'
p569
I569
sS'Enron'
p570
I570
sS'Edison'
p571
I571
sS'Committee'
p572
I513
sS'Civil District Court'
p573
I572
sS'Metro'
p574
I573
sS'Andrew H. Wilson Charter School'
p575
I485
sS'Louisiana State University'
p576
I575
sS'Arnold'
p577
I576
sS'Esperanza Charter'
p578
I505
sS'AP'
p579
I578
sS'New Orleans Recreation Department'
p580
I512
sS'District Court'
p581
I580
sS'Morgan'
p582
I581
sS'OPSO'
p583
I585
sS'Wheat'
p584
I582
sS'Turner'
p585
I583
sS'Crescent City Connection'
p586
I584
sS'Grace Episcopal Church'
p587
I111
sS'OPSB'
p588
I586
sS'Accelerated Academy'
p589
I587
sS'Justice Department'
p590
I228
sS'Fiscal Hawks'
p591
I589
sS'Audubon Charter'
p592
I100
sS'Bond Commission'
p593
I591
s.