(dp1
S'Public Affairs Research Council'
p2
I0
sS'Louisiana Housing Finance Authority'
p3
I1
sS'Finance Committee'
p4
I2
sS'Baptist Community Ministries'
p5
I3
sS'U.S. Fifth Circuit Court of Appeals'
p6
I425
sS'Flood Protection Authority'
p7
I4
sS'Public Affairs Research Council of Louisiana'
p8
I5
sS'New Orleans Musical Legends'
p9
I6
sS'Southerns'
p10
I7
sS'Morris Jeff'
p11
I96
sS'Cypress Realty Partners'
p12
I8
sS'Federal Emergency Management Agency'
p13
I9
sS'Municipal Court'
p14
I10
sS'KIPP New Orleans Leadership Academy'
p15
I11
sS'New Orleans Police and Justice Foundation'
p16
I12
sS'Lyce Franais de la Nouvelle-Orlans'
p17
I13
sS'Planning Commission'
p18
I14
sS'SPS'
p19
I15
sS'Orleans Parish Law Enforcement District'
p20
I16
sS'First Presbyterian Church'
p21
I436
sS'Customs Enforcement'
p22
I17
sS'Easton'
p23
I18
sS'HANO'
p24
I19
sS'Tulane'
p25
I20
sS'Krupp'
p26
I21
sS'KIPPs'
p27
I22
sS'Supreme Court'
p28
I23
sS'Coast Guard'
p29
I154
sS'Obamas'
p30
I25
sS'Collegiate Academies'
p31
I26
sS'Education Department'
p32
I505
sS'Legislative Black Caucus'
p33
I28
sS'New Orleans Traffic Court'
p34
I29
sS'ACLU'
p35
I30
sS'Ways and Means'
p36
I31
sS'Criminal Justice and Budget'
p37
I73
sS'Supreme Courts'
p38
I33
sS'NPR'
p39
I34
sS'CMO'
p40
I35
sS'Legislative Fiscal Office'
p41
I36
sS'The Lens'
p42
I37
sS'Lycee'
p43
I38
sS'Entergy'
p44
I39
sS'John McDonogh Senior High School'
p45
I40
sS'State'
p46
I41
sS'state Division of Administration'
p47
I42
sS'Benjamin E. Mays Preparatory School'
p48
I350
sS'Drug Enforcement Administration'
p49
I44
sS'Tulane University'
p50
I45
sS'Lyces'
p51
I46
sS'Appropriations Committee'
p52
I47
sS'HUD'
p53
I48
sS'Robinsons'
p54
I49
sS'Algiers Development District'
p55
I50
sS'Senate Finance Committee'
p56
I195
sS'Ford'
p57
I52
sS'Orleans Parish Schools'
p58
I53
sS'Recovery School District'
p59
I305
sS'Reed'
p60
I55
sS'Benjamin Franklin High Schools'
p61
I56
sS'Partnership for Assessment of Readiness for College and Careers'
p62
I57
sS'Audubon Charter School'
p63
I59
sS'Harrahs Casino'
p64
I60
sS'YMCA'
p65
I390
sS'United Teachers of New Orleans'
p66
I179
sS'Martin Behrman Charter School Academy of Creative Arts and Sciences'
p67
I63
sS'Budget'
p68
I64
sS'Martin Behrman Charter School'
p69
I65
sS'Green'
p70
I66
sS'New Orleans Charter Science and Math High School'
p71
I67
sS'Morris Jeff Community School'
p72
I68
sS'University of New Orleans'
p73
I69
sS'Sylvanie Williams College Prep'
p74
I70
sS'Associates'
p75
I71
sS'Austins'
p76
I74
sS'NOPD'
p77
I75
sS'Dillard University'
p78
I76
sS'DOJ'
p79
I77
sS'Literacy Charter School'
p80
I78
sS'D-Baton Rouge'
p81
I79
sS'Oprah Winfrey Network'
p82
I80
sS'Southern University'
p83
I81
sS'Medard H. Nelson Charter School'
p84
I82
sS'New Beginnings Schools Foundation'
p85
I83
sS'City Planning Commission'
p86
I201
sS'A.P. Tureaud Elementary'
p87
I84
sS'Crocker Arts and Technology School'
p88
I85
sS'Edgar P. Harney Spirit of Excellence Academy'
p89
I86
sS'Browns'
p90
I87
sS'R-Baton Rouge'
p91
I88
sS'Academic Excellence Committee'
p92
I89
sS'Committee for a Better New Orleans'
p93
I90
sS'Orleans Public Education Network'
p94
I420
sS'WWL-TV'
p95
I91
sS'NOLA'
p96
I92
sS'Lens'
p97
I93
sS'New Beginnings School Foundation'
p98
I94
sS'Rosary Catholic Church'
p99
I95
sS'Recovery School'
p100
I43
sS'Charity'
p101
I97
sS'National Wildlife Federation'
p102
I589
sS'International School'
p103
I98
sS'Reed Elementary'
p104
I99
sS'Xavier University'
p105
I101
sS'Crescent Citys'
p106
I102
sS'First NBC'
p107
I103
sS'Alice M. Harte Charter School'
p108
I104
sS'American Civil Liberties Union'
p109
I105
sS'St. Tammany Sheriffs Office'
p110
I106
sS'Sojourner Truth'
p111
I107
sS'Nola Business Alliance'
p112
I453
sS'Gentilly Terrace'
p113
I108
sS'Lake Forest Elementary Charter School'
p114
I58
sS'Benjamin Franklin High School'
p115
I110
sS'Samuel J. Green Charter School'
p116
I112
sS'Police Department'
p117
I113
sS'Sojourner Truth Academy'
p118
I114
sS'New Orleans Advocate'
p119
I115
sS'Juvenile Court'
p120
I116
sS'Elementary Charter School'
p121
I117
sS'Warren Easton Charter High School'
p122
I119
sS'Morris Jeff Community Schools'
p123
I120
sS'Algiers Technology Academy'
p124
I121
sS'KIPP New Orleans'
p125
I521
sS'Times-Picayune'
p126
I123
sS'New Orleans Police'
p127
I124
sS'Orleans Parish Sheriffs Office'
p128
I251
sS'Lake Area New Tech Early College High School'
p129
I126
sS'Crescent Leadership Academy'
p130
I127
sS'Broadmoor Charter School Board'
p131
I128
sS'Louisiana Supreme Court'
p132
I129
sS'Flood Protection Authoritys'
p133
I148
sS'Police Association of New Orleans'
p134
I131
sS'Algiers Charter School Association'
p135
I132
sS'Medley'
p136
I133
sS'Delgados'
p137
I134
sS'Benjamin Banneker Elementary School'
p138
I135
sS'Hall of Fame'
p139
I136
sS'Carr , Riggs & Ingram'
p140
I137
sS'Walton Foundation'
p141
I138
sS'RSD'
p142
I139
sS'Walgreens'
p143
I140
sS'Southern Media & Opinion Research'
p144
I141
sS'Edison Learning'
p145
I142
sS'Center for Reform of School Systems'
p146
I143
sS'Friends of King Schools'
p147
I569
sS'CODOFIL'
p148
I144
sS'New Orleans Recreation Development Commission'
p149
I291
sS'Kings'
p150
I146
sS'Catholic'
p151
I72
sS'NOAH'
p152
I149
sS'City Council District C'
p153
I150
sS'George Washington Carver Collegiate Academy'
p154
I151
sS'Paul Habans Charter School'
p155
I152
sS'Louisiana Board of Elementary and Secondary Education'
p156
I153
sS'Orleans Parish School'
p157
I24
sS'Sci High'
p158
I155
sS'Cypress'
p159
I156
sS'Louisiana Department of Corrections'
p160
I157
sS'Martin Luther King High School'
p161
I158
sS'SABIS'
p162
I125
sS'New Orleans Civil Service Commission'
p163
I529
sS'Walton Family Foundation'
p164
I160
sS'New Orleans Tourism and Marketing Corp.'
p165
I161
sS'New Orleans Culinary and Hospitality Institute'
p166
I162
sS'Firstline Schools , Inc.'
p167
I163
sS'Mildred Osborne Charter School'
p168
I164
sS'Office of Community Development'
p169
I165
sS'Arts Council'
p170
I166
sS'Civil Rights Division'
p171
I167
sS'City Council Budget Committee'
p172
I168
sS'U.S. Department of Justice'
p173
I169
sS'Internal Revenue Service'
p174
I170
sS'Common Core'
p175
I171
sS'DBE'
p176
I172
sS'JMAC'
p177
I173
sS'Council'
p178
I174
sS'Orleans Public Defenders Office'
p179
I175
sS'Saints'
p180
I176
sS'Public Works'
p181
I177
sS'Miller-McCoy'
p182
I178
sS'Morrells'
p183
I180
sS'Southeast Louisiana Flood Protection Authority East'
p184
I181
sS'RTA'
p185
I182
sS'Judicial Building Commission'
p186
I183
sS'Recovery School Districts'
p187
I185
sS'Jagers'
p188
I186
sS'National Oceanic and Atmospheric Administration'
p189
I187
sS'New Orleans Bar Association Campaign Finance Report'
p190
I188
sS'New Orleans Public Library'
p191
I189
sS'MCPA'
p192
I190
sS'School Board'
p193
I191
sS'ENCORE'
p194
I192
sS'GCA'
p195
I193
sS'RFP'
p196
I194
sS'Louisiana Legislature'
p197
I51
sS'ENCORE Academy'
p198
I196
sS'Department of Public Safety and Corrections'
p199
I197
sS'Office of Parental Options'
p200
I198
sS'Republican Governors Association'
p201
I437
sS'state Department of Education'
p202
I199
sS'Lagniappe Academy'
p203
I200
sS'John Dibert School'
p204
I32
sS'New Orleans Military'
p205
I202
sS'Sheriffs Office'
p206
I203
sS'McDonogh City Park Academy'
p207
I204
sS'Standard & Poors'
p208
I205
sS'International High School of New Orleans'
p209
I206
sS'NASA'
p210
I207
sS'Pride College Prep'
p211
I208
sS'Achievement Network'
p212
I209
sS'Lake Borgne Levee District'
p213
I210
sS'SciTech Academy'
p214
I211
sS'U.S. Department of Housing and Urban Development'
p215
I212
sS'Audubon'
p216
I421
sS'Karran Harper Royal'
p217
I214
sS'Disadvantaged Business Enterprise'
p218
I591
sS'Civil Service Department'
p219
I216
sS'ISL'
p220
I217
sS'Delgado Community College'
p221
I218
sS'House Appropriations Committee'
p222
I219
sS'James Singleton Charter School'
p223
I220
sS'Miller-McCoy Academy'
p224
I221
sS'Congress'
p225
I222
sS'CDBG'
p226
I223
sS'Criminal District Court'
p227
I224
sS'Office of Police Secondary Employment'
p228
I225
sS'Delta'
p229
I226
sS'Medicaid'
p230
I227
sS'National Institute of Justice'
p231
I423
sS'Metropolitan Crime Commission'
p232
I229
sS'Judicial Candidate Information Form'
p233
I231
sS'Neighborhood Conservation District Committee'
p234
I232
sS'Finance and Operations'
p235
I233
sS'Civil Service'
p236
I234
sS'Joseph A. Craig Charter School'
p237
I235
sS'Bricolage Academy'
p238
I236
sS'New Orleans Fire Department'
p239
I237
sS'Inc.'
p240
I238
sS'UNO'
p241
I239
sS'FirstLine Schools'
p242
I240
sS'Better Choice Foundation'
p243
I241
sS'Sears'
p244
I242
sS'CRA'
p245
I243
sS'Maritime Academy'
p246
I244
sS'Archon'
p247
I245
sS'French American International School'
p248
I246
sS'Southeast Louisiana Flood Protection Authority-West'
p249
I247
sS'Gentilly Terrace Charter School'
p250
I248
sS'Court'
p251
I249
sS'Army Corps of Engineers'
p252
I250
sS'Republican Party'
p253
I252
sS'L.B. Landry High School'
p254
I253
sS'Office of Supplier Diversity'
p255
I254
sS'New Orleans Regional Transit Authority'
p256
I255
sS'Cowen Institute'
p257
I256
sS'NOMMA'
p258
I542
sS'Jindals'
p259
I543
sS'Einstein Charter School'
p260
I259
sS'Langston Hughes'
p261
I260
sS'LSU Interim Hospital'
p262
I261
sS'Lafayette Academy Charter School'
p263
I262
sS'International School of Louisianas'
p264
I263
sS'Legislature'
p265
I264
sS'Hughes'
p266
I265
sS'Public Defenders Office'
p267
I266
sS'Louisiana Municipal Association'
p268
I267
sS'New Orleans Police Departments'
p269
I268
sS'U.S. Justice Department'
p270
I269
sS'Budget Committee'
p271
I270
sS'Jefferson Parish'
p272
I271
sS'Paul Habans Elementary School'
p273
I272
sS'Fannie C. Williams'
p274
I274
sS'Housing Authority of New Orleans'
p275
I275
sS'City Park Academys'
p276
I276
sS'GOP'
p277
I277
sS'Homer A. Plessy Community School'
p278
I278
sS'Schroder'
p279
I279
sS'Google'
p280
I280
sS'Fraternal Order of Police'
p281
I281
sS'Harriet Tubman Charter School'
p282
I282
sS'Audubon Nature Institute'
p283
I283
sS'NCDC'
p284
I284
sS'Edna Karr Charter High School'
p285
I285
sS'New Orleans Police Department'
p286
I286
sS'John Dibert Community School'
p287
I287
sS'International High School'
p288
I545
sS'Lagniappe Academies'
p289
I289
sS'White House'
p290
I290
sS'Success Preparatory Academy'
p291
I147
sS'Guidrys'
p292
I292
sS'Governance Committee'
p293
I293
sS'McDonogh City Park Academys'
p294
I294
sS'New Orleans College Prep'
p295
I295
sS'Parkers'
p296
I296
sS'New Orleans College Preparatory Academies'
p297
I297
sS'NET Charter High School'
p298
I547
sS'Encore Academy'
p299
I299
sS'Treme Charter School Association'
p300
I300
sS'Campbells'
p301
I301
sS'Friends of Kings'
p302
I302
sS'George Washington Carver High School'
p303
I303
sS'Metro Disposal'
p304
I304
sS'LSU'
p305
I54
sS'Collegiate Academy'
p306
I306
sS'Strategic Alliance Partners'
p307
I307
sS'Traffic Court'
p308
I308
sS'New Orleans Federal Alliance'
p309
I309
sS'Enron Energy Services'
p310
I310
sS'Trem Charter School Association'
p311
I311
sS'Landrys'
p312
I313
sS'World Trade Center'
p313
I314
sS'Vera Institute of Justice'
p314
I315
sS'Legislatures'
p315
I316
sS'Sizeler'
p316
I317
sS'Capital One-New Beginnings Charter School Network'
p317
I318
sS'Office of Juvenile Justice'
p318
I319
sS'IHS'
p319
I320
sS'Louisiana Artists Guild'
p320
I322
sS'NORA'
p321
I323
sS'Housing Authority'
p322
I324
sS'House'
p323
I553
sS'District Attorneys Office'
p324
I327
sS'Dryades YMCA'
p325
I328
sS'New Orleans Workers Center for Racial Justice'
p326
I329
sS'KIPP Renaissance High School'
p327
I330
sS'TRSL'
p328
I331
sS'Press Club'
p329
I332
sS'McDonogh'
p330
I333
sS'Robert Russa Moton Charter School'
p331
I334
sS'Louisiana Department of Education'
p332
I335
sS'EMS'
p333
I336
sS'Schaumburg Elementary'
p334
I337
sS'WWNO'
p335
I338
sS'Murray Henderson Elementary'
p336
I339
sS'BESE'
p337
I340
sS'New Orleans Coalition'
p338
I341
sS'American Federation of Teachers'
p339
I342
sS'Louisiana Budget Project'
p340
I343
sS'MFP'
p341
I344
sS'GT Asset Management'
p342
I345
sS'Harvard'
p343
I346
sS'Sewerage & Water Board'
p344
I347
sS'Langston Hughes Academy'
p345
I118
sS'King'
p346
I349
sS'NFL'
p347
I62
sS'FOX'
p348
I352
sS'Laurel St. Help'
p349
I351
sS'Warren Easton Charter Foundation'
p350
I353
sS'Civil Service Commission'
p351
I354
sS'Louisiana Association of Business and Industry'
p352
I557
sS'OSHA'
p353
I356
sS'House Democratic Caucus'
p354
I357
sS'Medard Nelson Charter School'
p355
I364
sS'Touro'
p356
I359
sS'state Board of Elementary and Secondary Education'
p357
I360
sS'MOU'
p358
I361
sS'Eastbank Collaborative of Charter Schools'
p359
I362
sS'Hes'
p360
I363
sS'Reporters Committee for Freedom of the Press'
p361
I365
sS'Board'
p362
I366
sS'Health Department'
p363
I367
sS'New Orleans Charter Schools Foundation'
p364
I368
sS'Department of Education'
p365
I369
sS'Redevelopment Authority'
p366
I370
sS'Associated Press'
p367
I371
sS'Akili Academy'
p368
I372
sS'ARAMARK'
p369
I373
sS'HRI'
p370
I433
sS'LFNO'
p371
I374
sS'City Park Academy'
p372
I375
sS'Crescent City'
p373
I376
sS'Columbia University'
p374
I377
sS'Andrew Wilson Charter School'
p375
I378
sS'Louisiana Housing Finance Agency'
p376
I379
sS'Mardi Gras'
p377
I454
sS'Sarah T. Reed High School'
p378
I381
sS'Division of Administration'
p379
I383
sS'Algiers Charter Schools Association'
p380
I384
sS'Lyce Franais'
p381
I385
sS'James M. Singleton Charter School'
p382
I386
sS'CDC'
p383
I387
sS'VAYLA'
p384
I388
sS'McDonald'
p385
I389
sS'Esperanza Charter School'
p386
I61
sS'Church'
p387
I391
sS'Campbell'
p388
I392
sS'Charter School Reporting Corps'
p389
I567
sS'Arthur Ashe Charter School'
p390
I394
sS'Office of Inspector General'
p391
I546
sS'Louisiana Recovery Authority'
p392
I396
sS'O. Perry Walker High School'
p393
I397
sS'EIS'
p394
I398
sS'Frantz Elementary'
p395
I399
sS'New York Times'
p396
I400
sS'CVS'
p397
I401
sS'Central Business District'
p398
I402
sS'Attorney Generals Office'
p399
I403
sS'NOCP'
p400
I404
sS'Republican'
p401
I348
sS'Louisiana Weekly'
p402
I405
sS'Edna Karr High School'
p403
I406
sS'Southern Media'
p404
I407
sS'Lafayette Academy'
p405
I487
sS'Lycee Francais'
p406
I408
sS'Office of Neighborhood Engagement'
p407
I409
sS'Department of Revenue'
p408
I410
sS'NOLA for Life Fund'
p409
I411
sS'Langston Hughes Academy Charter School'
p410
I412
sS'KIPP Central City Academy'
p411
I413
sS'Phillis Wheatley Elementary School'
p412
I414
sS'Roch-Hicks'
p413
I415
sS'IRS'
p414
I416
sS'House Ways and Means Committee'
p415
I417
sS'TCSA'
p416
I418
sS'Public Integrity Bureau'
p417
I321
sS'UTNO'
p418
I184
sS'JCC'
p419
I213
sS'Entergy New Orleans'
p420
I600
sS'NAACP'
p421
I422
sS'Edward Hynes Charter School'
p422
I228
sS'Social Security'
p423
I424
sS'U.S. Army Corps of Engineers'
p424
I312
sS'Criminal Justice Committee'
p425
I426
sS'Senate'
p426
I427
sS'Vera Institute'
p427
I428
sS'KIPP Central City Primary'
p428
I429
sS'Dwight D. Eisenhower Academy of Global Studies'
p429
I431
sS'Coroners Office'
p430
I432
sS'ExxonMobil'
p431
I273
sS'Charity Hospital'
p432
I434
sS'Host Committee'
p433
I435
sS'Public Service Commission'
p434
I325
sS'ARISE Academy'
p435
I215
sS'Fannie C. Williams Charter School'
p436
I438
sS'Orleans Parish'
p437
I439
sS'Department of Public Works'
p438
I440
sS'Public Charter School Program'
p439
I441
sS'BP'
p440
I442
sS'Archon Information Systems'
p441
I443
sS'Iberia Bank'
p442
I444
sS'DRC'
p443
I445
sS'EPA'
p444
I446
sS'Friends of King'
p445
I447
sS'Public Strategies Group'
p446
I145
sS'KIPP New Orleans Schools'
p447
I448
sS'KIPP Believe'
p448
I449
sS'Loyola'
p449
I450
sS'Advocates for Academic Excellence in Education'
p450
I451
sS'Justice'
p451
I452
sS'Orleans Parish Prison'
p452
I430
sS'Sci Academy'
p453
I380
sS'DOC'
p454
I455
sS'Cohen College Prep'
p455
I456
sS'Historic District Landmarks Commission'
p456
I457
sS'Louisiana Department of Public Safety and Corrections'
p457
I458
sS'International Business and Education'
p458
I395
sS'U.S. Department of Education'
p459
I460
sS'Firstline Schools'
p460
I461
sS'Department of Justice'
p461
I462
sS'French Market Corporation'
p462
I463
sS'Orleans Parish School Board'
p463
I464
sS'Fifth Circuit'
p464
I465
sS'WDSU'
p465
I466
sS'Workers Center'
p466
I467
sS'Crocker College Prep'
p467
I468
sS'Orleans Parish School District'
p468
I469
sS'Board of Elementary and Secondary Education'
p469
I470
sS'House of Detention'
p470
I382
sS'House Education Committee'
p471
I472
sS'Charter School Development Corp.'
p472
I473
sS'Gulf Restoration Network'
p473
I474
sS'Metros'
p474
I475
sS'Orleans Parish Communication District'
p475
I476
sS'Scheuermann & Jones'
p476
I477
sS'New Orleans Convention and Visitors Bureau'
p477
I478
sS'John McDonogh'
p478
I479
sS'ReNEW Accelerated High School'
p479
I480
sS'Convention Center'
p480
I481
sS'Governors Office of Homeland Security'
p481
I482
sS'Ethics Board'
p482
I483
sS'Commission'
p483
I484
sS'Morris Jeff Association of Educators'
p484
I485
sS'Ben Franklin High School'
p485
I486
sS'Louisiana State Police'
p486
I471
sS'U.S. District Court'
p487
I488
sS'Ehrhardt Group'
p488
I489
sS'PTO'
p489
I490
sS'New Orleans Redevelopment Authority'
p490
I491
sS'Bureau of Governmental Research'
p491
I492
sS'Postlethwaite & Netterville'
p492
I493
sS'Orleans Parish School Boards'
p493
I494
sS'Tricentennial Consortium'
p494
I586
sS'Audubon Place'
p495
I496
sS'Intuit'
p496
I497
sS'PTA'
p497
I498
sS'Choice Foundation'
p498
I499
sS'Facebook'
p499
I500
sS'City Attorneys Office'
p500
I501
sS'Treme'
p501
I502
sS'LLC'
p502
I503
sS'Southeast Louisiana Flood Protection Authority-East'
p503
I602
sS'KIPP McDonogh'
p504
I504
sS'Orleans Parish Sheriffs'
p505
I27
sS'Lake Forest Elementary'
p506
I506
sS'Louisiana Board of Ethics'
p507
I507
sS'Louisiana Department of Educations'
p508
I508
sS'Federal Court'
p509
I554
sS'City Councils Criminal Justice Committee'
p510
I509
sS'Einstein Charter Schools'
p511
I510
sS'Preparatory High School'
p512
I511
sS'Elementary School'
p513
I512
sS'Tulane Institute'
p514
I513
sS'Aramark'
p515
I514
sS'Southern Poverty Law Center'
p516
I459
sS'Batiste Cultural Arts Academy'
p517
I516
sS'Texas Tribune'
p518
I517
sS'Marco Outdoor Advertising'
p519
I518
sS'Intercultural Charter School'
p520
I519
sS'International School of Louisiana'
p521
I520
sS'Mayors Office'
p522
I122
sS'Chevron'
p523
I130
sS'John McDonogh High School'
p524
I524
sS'Board of Zoning Adjustments'
p525
I525
sS'Red Cross'
p526
I526
sS'Revenue Department'
p527
I527
sS'Loyola University'
p528
I528
sS'Hawks'
p529
I159
sS'Criminal Justice Working Group'
p530
I530
sS'U.S. Supreme Court'
p531
I531
sS'Minimum Foundation Program'
p532
I532
sS'St. Bernard Parish Council'
p533
I533
sS'IDC'
p534
I534
sS'KIPP Believe College Prep'
p535
I535
sS'Uptown Messenger'
p536
I536
sS'Finance'
p537
I537
sS'The Times-Picayune'
p538
I538
sS'Lusher Charter School'
p539
I539
sS'Baton Rouge'
p540
I540
sS'Greater New Orleans Foundation'
p541
I419
sS'Orleans Parish Civil District Court'
p542
I541
sS'FirstLine'
p543
I257
sS'Esperanza'
p544
I258
sS'New Orleans College Preps'
p545
I544
sS'Charter School'
p546
I288
sS'Lushers'
p547
I298
sS'Jefferson Parish School Board'
p548
I548
sS'John A. Shaw Elementary School'
p549
I549
sS'George Washington Carver Preparatory Academy'
p550
I550
sS'New Orleans Public Schools'
p551
I551
sS'Bell'
p552
I552
sS'Louisiana Economic Development'
p553
I326
sS'Department of Corrections'
p554
I358
sS'KIPP'
p555
I555
sS'St. Bernard Parish'
p556
I556
sS'Wilsons'
p557
I355
sS'FBI'
p558
I558
sS'Board of Regents'
p559
I559
sS'Louisiana Association of Public Charter Schools'
p560
I560
sS'Sewerage & Water Board of New Orleans'
p561
I561
sS'Arise Academy'
p562
I562
sS'New Orleans City Council'
p563
I563
sS'Regional Transit Authority'
p564
I564
sS'Orleans Parish Prison Reform Coalition'
p565
I565
sS'Office Depot'
p566
I566
sS'Hammonds Transportation'
p567
I393
sS'Aesha Rasheed'
p568
I568
sS'City Hall'
p569
I109
sS'Coastal Protection and Restoration Authority'
p570
I570
sS'FEMA'
p571
I571
sS'City Council'
p572
I572
sS'Crescent City Schools'
p573
I573
sS'House of Representatives'
p574
I574
sS'Orleans Parish Assessors Office'
p575
I575
sS'John McDonogh Advisory Committee'
p576
I576
sS'Governmental Affairs Committee'
p577
I577
sS'Franklin'
p578
I578
sS'ACSA'
p579
I579
sS'Water Board'
p580
I580
sS'New Orleans Charter Science & Mathematics High School'
p581
I581
sS'Enron'
p582
I582
sS'Edison'
p583
I583
sS'Committee'
p584
I523
sS'Civil District Court'
p585
I584
sS'Metro'
p586
I585
sS'Andrew H. Wilson Charter School'
p587
I495
sS'Louisiana State University'
p588
I587
sS'Arnold'
p589
I588
sS'Esperanza Charter'
p590
I515
sS'AP'
p591
I590
sS'New Orleans Recreation Department'
p592
I522
sS'District Court'
p593
I592
sS'Morgan'
p594
I593
sS'OPSO'
p595
I597
sS'Wheat'
p596
I594
sS'Turner'
p597
I595
sS'Crescent City Connection'
p598
I596
sS'Grace Episcopal Church'
p599
I111
sS'OPSB'
p600
I598
sS'Accelerated Academy'
p601
I599
sS'Justice Department'
p602
I230
sS'Fiscal Hawks'
p603
I601
sS'Audubon Charter'
p604
I100
sS'Bond Commission'
p605
I603
s.