(dp1
S'Robert Rachal'
p2
I0
sS'McClure'
p3
I1
sS'Bailey'
p4
I2
sS'Lyce Franais'
p5
I251
sS'Lyce Franais de la Nouvelle-Orlans'
p6
I3
sS'Kevin Wildes'
p7
I58
sS'Joseph A. Craig'
p8
I5
sS'HANO'
p9
I6
sS'Susan Guidry'
p10
I7
sS'Kathy Litchfield'
p11
I8
sS'Henry'
p12
I9
sS'Robert Scott'
p13
I10
sS'Gilbert Buras'
p14
I11
sS'Thomas'
p15
I12
sS'Dana Peterson'
p16
I13
sS'Lawrence Kullman'
p17
I14
sS'Paul'
p18
I15
sS'Mitch'
p19
I16
sS'Jones Walker'
p20
I17
sS'Cynthia Williams'
p21
I18
sS'Seth Bloom'
p22
I19
sS'Collins'
p23
I20
sS'Zachary Wool'
p24
I21
sS'Leikin'
p25
I22
sS'Barry Landry'
p26
I23
sS'Katrina Jackson'
p27
I24
sS'Tillison'
p28
I25
sS'Sylvia Arcenaux-Ellison'
p29
I26
sS'Lawliss Turner'
p30
I257
sS'Akilis'
p31
I28
sS'Leila Eames'
p32
I29
sS'Andry'
p33
I30
sS'David Napoleon'
p34
I31
sS'Pierson'
p35
I32
sS'Swayze'
p36
I33
sS'Medard Nelson'
p37
I34
sS'Lynette Brice'
p38
I35
sS'Landrieus'
p39
I36
sS'Dan Forman'
p40
I37
sS'Adam Hawf'
p41
I38
sS'Pam Laborde'
p42
I39
sS'Kinlaw'
p43
I40
sS'Siona LaFrance'
p44
I41
sS'Defillo'
p45
I42
sS'Bouie'
p46
I43
sS'John Wettermark'
p47
I44
sS'LaToya Cantrell'
p48
I45
sS'Kirk Talbot'
p49
I46
sS'Gentry'
p50
I47
sS'Neil Abramson'
p51
I48
sS'Alisa Dupre'
p52
I49
sS'Morris Jeff'
p53
I50
sS'Elizabeth Chaponot'
p54
I51
sS'Paul Kemp'
p55
I52
sS'Mary Jacobs Jones'
p56
I337
sS'Gilyot'
p57
I54
sS'Nayita Wilson'
p58
I55
sS'Wondwossen'
p59
I56
sS'Anderson Baker'
p60
I57
sS'Shirley'
p61
I4
sS'Keith Sanders'
p62
I1087
sS'Ozanne'
p63
I60
sS'Will Bradshaw'
p64
I375
sS'Beebe'
p65
I62
sS'Walsh'
p66
I63
sS'Brett Hunt'
p67
I64
sS'Le'
p68
I65
sS'Warren Easton'
p69
I66
sS'Twitchell'
p70
I67
sS'Doris Roch-Hicks'
p71
I68
sS'Bruno'
p72
I422
sS'Jessica Williams'
p73
I70
sS'Leger'
p74
I71
sS'Gardner'
p75
I72
sS'St. Cyr'
p76
I73
sS'John Hope'
p77
I74
sS'Ira Thomas'
p78
I75
sS'Bates'
p79
I76
sS'Kate Mehok'
p80
I77
sS'David Bailey'
p81
I78
sS'Reese'
p82
I79
sS'Amoss'
p83
I80
sS'Glapion'
p84
I81
sS'Jill Otis'
p85
I82
sS'Kristin Huston'
p86
I83
sS'David Benelli'
p87
I84
sS'Fannin'
p88
I85
sS'Lundbeck'
p89
I86
sS'Slager'
p90
I87
sS'Zapata'
p91
I88
sS'Robertson'
p92
I89
sS'Michael Harrison'
p93
I90
sS'Gabriel Bordenave'
p94
I91
sS'Sizeler Thompson Brown'
p95
I92
sS'Blanco'
p96
I93
sS'Sean Lansing'
p97
I94
sS'Pamela Randall'
p98
I95
sS'Beck'
p99
I96
sS'Harris'
p100
I97
sS'Pate'
p101
I98
sS'McCormack Baron Salazar'
p102
I1160
sS'Christiansen'
p103
I100
sS'Alice Harte'
p104
I101
sS'B.W. Cooper'
p105
I102
sS'Christine Mitchell'
p106
I103
sS'Kopplin'
p107
I104
sS'Aluise'
p108
I105
sS'Lee Reid'
p109
I106
sS'Mark Davis'
p110
I107
sS'Antoine'
p111
I108
sS'Latoya Cantrell'
p112
I109
sS'John Kennedy'
p113
I110
sS'Sandra Cahill'
p114
I111
sS'Goodwin'
p115
I112
sS'Sam Joel'
p116
I113
sS'Marc Ehrhardt'
p117
I114
sS'James Hilburn'
p118
I115
sS'Vallas'
p119
I116
sS'Vaughn Fauria'
p120
I117
sS'Lorin Crenshaw'
p121
I118
sS'Duane Drucker'
p122
I119
sS'Julius Kimbrough'
p123
I120
sS'Tim Gray'
p124
I121
sS'Ward'
p125
I122
sS'Napoleon'
p126
I123
sS'Meyer'
p127
I124
sS'Serpas'
p128
I125
sS'Hunnewell'
p129
I705
sS'Ed Graf'
p130
I127
sS'Lopinto'
p131
I128
sS'Bajoie'
p132
I129
sS'Daschbach'
p133
I130
sS'Mike Bagot'
p134
I131
sS'Austin Badon'
p135
I132
sS'Rosenberg'
p136
I133
sS'Nick Felton'
p137
I134
sS'Nancy Shoemaker'
p138
I135
sS'Karran Harper Royal'
p139
I136
sS'Walter Paulson'
p140
I137
sS'Daniel OConnell'
p141
I138
sS'Donald Pate'
p142
I139
sS'Vilmenay'
p143
I140
sS'Stacy Head'
p144
I141
sS'Charles Rice'
p145
I142
sS'Julie Lause'
p146
I143
sS'Marlon Ford'
p147
I144
sS'Sidney Barthelemy'
p148
I145
sS'Mark Mayer'
p149
I146
sS'Ryan Mast'
p150
I147
sS'Andrew Ward'
p151
I914
sS'Guitterrez'
p152
I150
sS'Bagneris'
p153
I152
sS'Michael Bagneris'
p154
I1063
sS'Denise Williams'
p155
I154
sS'Calvin Johnson'
p156
I155
sS'Bobby Jindals'
p157
I156
sS'Craig'
p158
I157
sS'Guerin'
p159
I158
sS'Lisa Tabb'
p160
I159
sS'Jim Huger'
p161
I160
sS'Kwame Smith'
p162
I161
sS'Andrew Abrams'
p163
I162
sS'Alison Hartman'
p164
I163
sS'Edward Hynes'
p165
I164
sS'Ferris'
p166
I165
sS'Cary Grant'
p167
I166
sS'Paula Griffin'
p168
I167
sS'Timothy Rusnak'
p169
I168
sS'Williams'
p170
I169
sS'Kathy Riedlinger'
p171
I170
sS'Serpe'
p172
I171
sS'Gisele Schexnider'
p173
I172
sS'Benenson'
p174
I173
sS'Stephen Estopinal'
p175
I174
sS'Jones'
p176
I175
sS'Hearin'
p177
I176
sS'Monica Edwards'
p178
I177
sS'Candal'
p179
I178
sS'Bono'
p180
I179
sS'Olivier'
p181
I180
sS'Buckley'
p182
I181
sS'Paige'
p183
I182
sS'Robert Sloan'
p184
I183
sS'Eades Hogue'
p185
I184
sS'Lewis'
p186
I185
sS'Rubenstein'
p187
I186
sS'Will Kulick'
p188
I187
sS'Diana Lewis'
p189
I188
sS'Zeringue'
p190
I189
sS'DJuan Hernandez'
p191
I190
sS'Carey'
p192
I191
sS'McDonough'
p193
I192
sS'Foti'
p194
I193
sS'Susie Morgan'
p195
I194
sS'Doug Guidry'
p196
I195
sS'Koppel'
p197
I196
sS'Huger'
p198
I197
sS'John Hummel'
p199
I198
sS'Joel Robideaux'
p200
I199
sS'Batiste'
p201
I201
sS'Sharon Clark'
p202
I202
sS'Moore'
p203
I203
sS'Ken Ducote'
p204
I204
sS'Douglas Evans'
p205
I205
sS'Pearce'
p206
I206
sS'Lisa Daggs'
p207
I207
sS'Bradshaw'
p208
I208
sS'Kyle Plotkin'
p209
I209
sS'Perez'
p210
I210
sS'Vinnett'
p211
I211
sS'Jackson'
p212
I212
sS'Michael Richard'
p213
I213
sS'Ripski'
p214
I214
sS'Sholes Sr.'
p215
I215
sS'Anderson'
p216
I216
sS'Foster'
p217
I1172
sS'Butler'
p218
I218
sS'John'
p219
I1180
sS'Kristen Ponthier'
p220
I220
sS'Dardenne'
p221
I221
sS'John Broussard'
p222
I222
sS'Laura Charbonnet'
p223
I223
sS'Ernest N. Morial'
p224
I224
sS'Greenwald'
p225
I225
sS'Hurricane Isaac'
p226
I226
sS'Sodexo'
p227
I227
sS'Bobby Jindal'
p228
I228
sS'Carol Asher'
p229
I229
sS'Esman'
p230
I230
sS'Michelle Brown'
p231
I231
sS'Maurice Lightfoot'
p232
I232
sS'Gaudet'
p233
I233
sS'Elizabeth Ostberg'
p234
I234
sS'Candice Frazier'
p235
I235
sS'Dibert'
p236
I236
sS'Wesley Bishop'
p237
I237
sS'Mireille Rabat'
p238
I238
sS'Harrell'
p239
I239
sS'Bryan Collins'
p240
I240
sS'Hadley'
p241
I241
sS'John White'
p242
I242
sS'Hernandez'
p243
I243
sS'Hillard'
p244
I244
sS'Claudia Kent'
p245
I245
sS'Carl Indest'
p246
I246
sS'Adams'
p247
I247
sS'Egana'
p248
I248
sS'Derbigny'
p249
I249
sS'Stuart'
p250
I250
sS'Pastorek'
p251
I1177
sS'Amy George-Hirons'
p252
I252
sS'Holmes'
p253
I253
sS'Barbara McPhee'
p254
I254
sS'Emily Danielson'
p255
I255
sS'Conklin'
p256
I256
sS'Bechet'
p257
I27
sS'Charline Wright'
p258
I258
sS'Harrison'
p259
I259
sS'Campbell'
p260
I260
sS'Hema Banangada'
p261
I348
sS'Bush'
p262
I261
sS'Courtney'
p263
I262
sS'Lindsey Moore'
p264
I263
sS'Mary Landrieus'
p265
I264
sS'Jeffrey'
p266
I265
sS'Abrams'
p267
I266
sS'LaMothe'
p268
I267
sS'Chana Benenson'
p269
I268
sS'Ed Quatrevaux'
p270
I269
sS'Bordson-Bozzo'
p271
I270
sS'Kim Bondy'
p272
I271
sS'Roch-Hicks'
p273
I272
sS'Eisenhower'
p274
I273
sS'Shes'
p275
I274
sS'Morris'
p276
I275
sS'Patterson'
p277
I1181
sS'Gina Dupart'
p278
I277
sS'Pelican'
p279
I278
sS'Brett Geymann'
p280
I279
sS'Stephen Rosenthal'
p281
I280
sS'Lisa Hudson'
p282
I281
sS'Andy Kopplin'
p283
I282
sS'Jeff Zapata'
p284
I283
sS'Ellen Bankston'
p285
I284
sS'Jeffrey Rouse'
p286
I285
sS'Colleen Mackay'
p287
I286
sS'Mickey Landry'
p288
I287
sS'Hassinger'
p289
I288
sS'Mardi Gras'
p290
I289
sS'Carol McCall'
p291
I296
sS'James'
p292
I291
sS'Schexnider'
p293
I292
sS'Forcier'
p294
I293
sS'Kelly Batiste'
p295
I294
sS'Leon Cannizzaro'
p296
I295
sS'Norman Foster'
p297
I1259
sS'Winkler-Schmit'
p298
I297
sS'Frank Buckley'
p299
I298
sS'Keith Bartlett'
p300
I299
sS'Caldwell'
p301
I300
sS'Mary Joseph'
p302
I301
sS'Ostberg'
p303
I302
sS'Triplett'
p304
I303
sS'Noel'
p305
I304
sS'Jean Montes'
p306
I305
sS'David Garland'
p307
I149
sS'Lee'
p308
I307
sS'Kristina Kent'
p309
I308
sS'Lee Pryor'
p310
I369
sS'Lucas Diaz'
p311
I310
sS'Juanita Chenevert'
p312
I311
sS'Ehrhardt'
p313
I658
sS'Mackel'
p314
I313
sS'Carol Whelan'
p315
I314
sS'Graf'
p316
I315
sS'Todd Purvis'
p317
I316
sS'Weimer'
p318
I317
sS'Ronicka Briscoe'
p319
I1185
sS'Josh Densen'
p320
I319
sS'Perricone'
p321
I320
sS'Robideaux'
p322
I450
sS'Jim Raby'
p323
I322
sS'Bob Turner'
p324
I323
sS'Woldenberg'
p325
I324
sS'Parrish'
p326
I325
sS'James Huger'
p327
I326
sS'Chris Hines'
p328
I327
sS'Grandiere'
p329
I512
sS'Clarksons'
p330
I329
sS'Sarah T. Reed'
p331
I330
sS'Steve Beatty'
p332
I151
sS'Marta Jewson'
p333
I332
sS'F.H. Paschen'
p334
I333
sS'Hudson'
p335
I569
sS'Patricia Ventura'
p336
I575
sS'Dan OConnell'
p337
I577
sS'Wiley Ates'
p338
I53
sS'Aesha Rasheed'
p339
I338
sS'David Jackson'
p340
I339
sS'JVann Martin'
p341
I340
sS'Mayer'
p342
I341
sS'Goetzee'
p343
I342
sS'Doug Finegan'
p344
I343
sS'Rachel Wisdom'
p345
I344
sS'Gurtner'
p346
I345
sS'Mays'
p347
I346
sS'Patrick Walsh'
p348
I347
sS'Shawn Barney'
p349
I424
sS'Ryan Bates'
p350
I349
sS'Gasho'
p351
I350
sS'Bill Langenstein'
p352
I351
sS'Cambre'
p353
I352
sS'Arnold'
p354
I353
sS'Nan Ryan'
p355
I354
sS'Jeremy Hunnewell'
p356
I355
sS'Charles'
p357
I356
sS'Erroll Williams'
p358
I357
sS'Jim Schneiders'
p359
I358
sS'Marshall Fitz'
p360
I359
sS'Mike Greer'
p361
I360
sS'Boyle'
p362
I361
sS'Ridley'
p363
I362
sS'Martin Feibelman'
p364
I363
sS'Milestone'
p365
I364
sS'John Dibert'
p366
I365
sS'Mark Caramanica'
p367
I739
sS'Linda Launey'
p368
I367
sS'Jerry Sneed'
p369
I368
sS'Lause'
p370
I309
sS'Andrea Thomas-Reynolds'
p371
I370
sS'James Reiss'
p372
I371
sS'Vitter'
p373
I372
sS'Parker'
p374
I373
sS'Joseph Kimbrell'
p375
I374
sS'Crowe'
p376
I61
sS'Mitch Landrieus'
p377
I376
sS'Lawrence Vinnett'
p378
I377
sS'Behrman'
p379
I378
sS'George'
p380
I379
sS'Gray'
p381
I312
sS'Reilly'
p382
I380
sS'Rice'
p383
I381
sS'John Schroder'
p384
I382
sS'Langston Hughes'
p385
I383
sS'Cahill'
p386
I384
sS'Head'
p387
I385
sS'Robin Gorman'
p388
I386
sS'Ray Nagin'
p389
I387
sS'Joseph Neary'
p390
I388
sS'Sandra Monroe'
p391
I389
sS'Lopez'
p392
I390
sS'Dow Edwards'
p393
I391
sS'Ray Nagins'
p394
I392
sS'Bernie Pinsonat'
p395
I393
sS'Keith Amacker'
p396
I394
sS'Gary Clements'
p397
I395
sS'Jean-Jacques Grandiere'
p398
I396
sS'Stupak'
p399
I397
sS'Brian K. Richburg'
p400
I398
sS'Charmaine Robertson'
p401
I399
sS'Minyard'
p402
I400
sS'Mullin'
p403
I401
sS'Sharon Courtney'
p404
I402
sS'Coleman Ridley'
p405
I403
sS'Isaac'
p406
I404
sS'Sanders'
p407
I405
sS'Joe Daschbach'
p408
I406
sS'Appel'
p409
I407
sS'Barfield'
p410
I408
sS'Ryan Bennett'
p411
I989
sS'Kleckley'
p412
I410
sS'Ben Hicks'
p413
I411
sS'Freret'
p414
I200
sS'Ashe'
p415
I413
sS'Munchak'
p416
I414
sS'Asher'
p417
I1026
sS'Barr'
p418
I416
sS'George Washington Carver'
p419
I417
sS'Priestley'
p420
I418
sS'Benelli'
p421
I419
sS'Amedee'
p422
I420
sS'Abney'
p423
I421
sS'Todd James'
p424
I69
sS'Courtney Bagneris'
p425
I1071
sS'Errol George'
p426
I425
sS'Jackie Clarkson'
p427
I426
sS'Southall'
p428
I427
sS'Joseph Cao'
p429
I428
sS'Mary Brown'
p430
I429
sS'Densen'
p431
I430
sS'Garnesha Crawford'
p432
I431
sS'Marvin Thompson'
p433
I432
sS'Sean Bruno'
p434
I433
sS'Cannizzaros'
p435
I434
sS'Martin'
p436
I435
sS'Geneva Longlois-Marney'
p437
I436
sS'Shawne Favre'
p438
I437
sS'Jamar McKneely'
p439
I438
sS'Kelly McClure'
p440
I439
sS'Andrew Yon'
p441
I440
sS'Jen Walcott'
p442
I441
sS'Lee Hampton'
p443
I442
sS'Jean Claude Brunet'
p444
I443
sS'Hester'
p445
I444
sS'White'
p446
I445
sS'Cook Sr.'
p447
I446
sS'Windi Brown'
p448
I447
sS'Larry Eustis'
p449
I448
sS'Hightower'
p450
I449
sS'Louisianas'
p451
I321
sS'Melissa Jagers'
p452
I451
sS'Ed Blouin'
p453
I452
sS'Cherie Lopez'
p454
I453
sS'Ariella Cohen'
p455
I454
sS'Padian'
p456
I455
sS'Gordon'
p457
I456
sS'Kemp'
p458
I457
sS'Webster'
p459
I458
sS'Glasser'
p460
I459
sS'Stephens'
p461
I460
sS'Julie Walker'
p462
I461
sS'Chuck Kleckley'
p463
I462
sS'McCampbell'
p464
I463
sS'Belinda Cambre'
p465
I464
sS'Pete Rodway'
p466
I465
sS'Darius Munchak'
p467
I466
sS'McLeish'
p468
I467
sS'Sheppard'
p469
I468
sS'Monique Cola'
p470
I469
sS'Lauren Pigeon'
p471
I470
sS'John Williams'
p472
I471
sS'Pierre A. Capdau'
p473
I472
sS'Caramanica'
p474
I473
sS'Andrew Shahan'
p475
I474
sS'Collette Creppell'
p476
I475
sS'Harry Rosenberg'
p477
I476
sS'Darleen Mipro'
p478
I477
sS'Medley'
p479
I753
sS'Alysson Mills'
p480
I479
sS'Kalifey-Aluise'
p481
I480
sS'Kabacoff'
p482
I481
sS'Howell'
p483
I482
sS'Anna Koehl'
p484
I483
sS'Jon Wool'
p485
I484
sS'Landry'
p486
I485
sS'Templeman'
p487
I486
sS'Hoffman'
p488
I487
sS'Palmer'
p489
I488
sS'Mike Lappa'
p490
I755
sS'Bob Stefani'
p491
I490
sS'Abramson'
p492
I491
sS'Lee Caston'
p493
I492
sS'Alcazar'
p494
I493
sS'Capdau'
p495
I494
sS'Carolyn Chandler'
p496
I495
sS'Peterson'
p497
I496
sS'Hardrick'
p498
I497
sS'Alison Mehr'
p499
I498
sS'Cali'
p500
I499
sS'Crawford'
p501
I500
sS'Hicks-Cook'
p502
I501
sS'Grandire'
p503
I502
sS'Brett Bonin'
p504
I503
sS'Gail Armant'
p505
I504
sS'Montagnes'
p506
I505
sS'Paul Habans Elementary'
p507
I506
sS'Doucette'
p508
I507
sS'Walt Leger'
p509
I508
sS'Robert Corvo'
p510
I509
sS'Stephen Boyard'
p511
I510
sS'Joseph S. Clark'
p512
I511
sS'Chris Lozier'
p513
I328
sS'LaBruzzo'
p514
I513
sS'Donald Herry'
p515
I514
sS'Mince'
p516
I515
sS'Monroe'
p517
I516
sS'Jean Monts'
p518
I517
sS'Fran Trujillo'
p519
I518
sS'Barry'
p520
I519
sS'Alarcon'
p521
I543
sS'Usdin'
p522
I521
sS'Kent'
p523
I522
sS'Kristen Gisleson Palmer'
p524
I523
sS'Ann Salzer'
p525
I524
sS'Walter L. Cohen'
p526
I525
sS'Bunton'
p527
I526
sS'Piazza'
p528
I527
sS'Cameron Henry'
p529
I623
sS'Louis'
p530
I528
sS'Toranto'
p531
I529
sS'Mark Boucree'
p532
I530
sS'Pres Kabacoff'
p533
I531
sS'Ronal Serpas'
p534
I532
sS'Tilton'
p535
I533
sS'Carol McCree'
p536
I534
sS'Allen'
p537
I535
sS'Vanessa Gueringer'
p538
I536
sS'Grant'
p539
I537
sS'Monica Candal'
p540
I538
sS'Jackson Knowles'
p541
I539
sS'Markowitz'
p542
I540
sS'Arthur Hardy'
p543
I541
sS'Melancon'
p544
I542
sS'Patricia Perkins'
p545
I520
sS'Berner'
p546
I544
sS'Kathryn Broussard'
p547
I545
sS'Johnson'
p548
I546
sS'Arthur Ashe'
p549
I547
sS'Burvant'
p550
I548
sS'Mireille Rabate'
p551
I549
sS'Mipro'
p552
I550
sS'Jay Dardenne'
p553
I551
sS'Carver'
p554
I552
sS'House Bill'
p555
I553
sS'Phipps'
p556
I554
sS'Silva'
p557
I555
sS'Kenneth Polite'
p558
I556
sS'Marlin Gusman'
p559
I557
sS'Dennis McGuire'
p560
I558
sS'John Georges'
p561
I559
sS'Patrick Dobard'
p562
I560
sS'Riley'
p563
I561
sS'John Hiser'
p564
I562
sS'Kisa Holmes'
p565
I563
sS'Jim Dukes'
p566
I1232
sS'Hynes'
p567
I565
sS'Bui'
p568
I566
sS'Claiborne'
p569
I567
sS'Bob Marshall'
p570
I568
sS'Purvis'
p571
I334
sS'Hebert'
p572
I570
sS'Corvo'
p573
I571
sS'Joseph Dunn'
p574
I572
sS'Osborn'
p575
I573
sS'Shaud Wilson'
p576
I574
sS'Kelt'
p577
I335
sS'Phong Tran'
p578
I576
sS'Berni'
p579
I336
sS'Marshall'
p580
I578
sS'Raftelis'
p581
I579
sS'Couhig'
p582
I580
sS'Vic Richard'
p583
I581
sS'Hammonds'
p584
I582
sS'Mary Landrieu'
p585
I583
sS'Ingrid Labat'
p586
I727
sS'Otis'
p587
I585
sS'Alexina Medley'
p588
I586
sS'Wool'
p589
I749
sS'Tubman'
p590
I588
sS'Matt Davis'
p591
I589
sS'Dan Henderson'
p592
I590
sS'Eileen Williams'
p593
I591
sS'Kevin Maney'
p594
I592
sS'Darrin Cook'
p595
I593
sS'Brian Richburg'
p596
I594
sS'Fertitta'
p597
I792
sS'Katie Schwartzmann'
p598
I596
sS'Helene Derbigny'
p599
I597
sS'Jindal'
p600
I598
sS'Carlos Zervigon'
p601
I599
sS'Phil Stelly'
p602
I600
sS'Lance Harris'
p603
I601
sS'Granderson'
p604
I602
sS'Rob Couhig'
p605
I603
sS'Im'
p606
I604
sS'Cora Charles'
p607
I605
sS'Montes'
p608
I606
sS'Kenneth Charity'
p609
I607
sS'Barrios'
p610
I608
sS'Estopinal'
p611
I609
sS'Ross Anderson'
p612
I610
sS'Muntean'
p613
I611
sS'Cowan'
p614
I612
sS'James Carter'
p615
I613
sS'Kristin Gisleson Palmer'
p616
I614
sS'Derek Rabb'
p617
I615
sS'Kullman'
p618
I616
sS'Greg St. Etienne'
p619
I617
sS'MacPhaille'
p620
I618
sS'Georges'
p621
I619
sS'Norton'
p622
I306
sS'Claire McDaniel'
p623
I620
sS'Martin Luther King'
p624
I621
sS'Mao'
p625
I622
sS'Ursin'
p626
I1344
sS'Robichaux'
p627
I624
sS'Alvin Meister'
p628
I625
sS'Harriet Tubman'
p629
I626
sS'Perry'
p630
I627
sS'Plessy'
p631
I628
sS'Charles Petrey'
p632
I629
sS'Vong Nguyen'
p633
I630
sS'David Bordson-Bozzo'
p634
I1001
sS'Bedell'
p635
I632
sS'Darryl Kilbert'
p636
I633
sS'Douglass'
p637
I634
sS'Thelma Ruth'
p638
I635
sS'Mary Kay Parker'
p639
I636
sS'Kesana Durand'
p640
I637
sS'Landrieu'
p641
I638
sS'Jon Johnson'
p642
I639
sS'Joseph Daschbach'
p643
I640
sS'Melissa Lessell'
p644
I641
sS'Errol B. Conley'
p645
I1068
sS'Shawn Toranto'
p646
I643
sS'Roslyn Smith'
p647
I644
sS'Richard Pennington'
p648
I645
sS'Teague'
p649
I646
sS'Cynthia Hedge-Morrell'
p650
I647
sS'Principal Robertson'
p651
I648
sS'MacPhee'
p652
I649
sS'Floyd'
p653
I650
sS'Bower'
p654
I651
sS'Sharonda Williams'
p655
I652
sS'Bartlett'
p656
I653
sS'Jana Smith'
p657
I654
sS'Obama'
p658
I655
sS'Jindals'
p659
I656
sS'Brian Jacobs'
p660
I412
sS'Jan Moller'
p661
I657
sS'Beckner'
p662
I659
sS'Walker'
p663
I660
sS'Johnston'
p664
I661
sS'Gusmans'
p665
I662
sS'Brooke Muntean'
p666
I663
sS'Rodriguez'
p667
I664
sS'Joseph'
p668
I665
sS'Sean Perkins'
p669
I666
sS'Hutson'
p670
I667
sS'Gregory Thompson'
p671
I668
sS'Robert Bell'
p672
I669
sS'Garland'
p673
I670
sS'Zanders'
p674
I671
sS'Sybil Favrot'
p675
I672
sS'Watson'
p676
I1289
sS'Broussard'
p677
I674
sS'Ramsey Green'
p678
I675
sS'Walcott'
p679
I676
sS'Charlie Mackles'
p680
I951
sS'Scott Jacobs'
p681
I678
sS'Ashley Beckner'
p682
I679
sS'Victor Gordon'
p683
I680
sS'Ben Mays'
p684
I681
sS'Timothy Ryan'
p685
I682
sS'Tracy Joseph'
p686
I683
sS'Peggy Wilson'
p687
I684
sS'Edison'
p688
I685
sS'Derek Bardell'
p689
I686
sS'Schmidt'
p690
I687
sS'Erin Greenwald'
p691
I688
sS'Brown'
p692
I689
sS'Matthew Amoss'
p693
I690
sS'Gaudry'
p694
I691
sS'Lance Africk'
p695
I692
sS'William J. Fischer'
p696
I693
sS'Charleen Blache'
p697
I694
sS'Anna Burrell'
p698
I695
sS'Darren Beltz'
p699
I696
sS'James Perry'
p700
I697
sS'Troy Henry'
p701
I698
sS'Cam Thanh Tran'
p702
I1035
sS'Wanda Brooks'
p703
I700
sS'Andrea Armstrong'
p704
I701
sS'Fowler'
p705
I702
sS'Nagin'
p706
I703
sS'Klingler'
p707
I704
sS'Charles Southall III'
p708
I126
sS'Simone Green'
p709
I706
sS'Chase'
p710
I707
sS'Schlesinger'
p711
I708
sS'Steve Barr'
p712
I709
sS'John Barry'
p713
I710
sS'Sametta Brown'
p714
I711
sS'Madonna Green'
p715
I712
sS'Jim Fannin'
p716
I713
sS'Keith Crawford'
p717
I714
sS'Shafer'
p718
I1167
sS'Edwin Murray'
p719
I715
sS'Jason Williams'
p720
I716
sS'Rusnak'
p721
I717
sS'Marcovitz'
p722
I718
sS'Clark'
p723
I719
sS'Buddy Roemer'
p724
I720
sS'Heather Schwartz'
p725
I721
sS'Dobard'
p726
I722
sS'Victor'
p727
I723
sS'Loeffelholz'
p728
I724
sS'Jason Hughes'
p729
I725
sS'Tom Slager'
p730
I726
sS'Akili Academys'
p731
I584
sS'Clarence Robinson'
p732
I728
sS'Mary Ellen Alexander'
p733
I729
sS'Francis Cascio'
p734
I730
sS'Claire Adriaan'
p735
I731
sS'Beatty'
p736
I732
sS'Zoey Reed'
p737
I733
sS'Laurin Jacobsen'
p738
I734
sS'Kennedy'
p739
I735
sS'Blake LeMaire'
p740
I736
sS'Ducote'
p741
I737
sS'Ruocco'
p742
I738
sS'Jabbar'
p743
I366
sS'Buddy Caldwell'
p744
I740
sS'Wade'
p745
I741
sS'Dupre'
p746
I742
sS'Sylvanie Williams'
p747
I743
sS'Sophie B. Wrights'
p748
I744
sS'Thompson'
p749
I745
sS'Coleman'
p750
I746
sS'Claire Jecklin'
p751
I747
sS'Jacobsen'
p752
I748
sS'Carpenter'
p753
I750
sS'Amato'
p754
I751
sS'Chauncey Nash'
p755
I752
sS'Anderson-Guillaume'
p756
I478
sS'Kelly'
p757
I754
sS'Doody'
p758
I489
sS'Ninh Tran'
p759
I756
sS'Stevens'
p760
I757
sS'Richard Cortizas'
p761
I758
sS'Dudek'
p762
I759
sS'Alvaro Alcazar'
p763
I331
sS'Christopher Kaul'
p764
I760
sS'Lee Adler'
p765
I761
sS'Joseph Craig Elementary'
p766
I762
sS'Nolan Marshall Jr.'
p767
I763
sS'Paul Pechon'
p768
I764
sS'Kleban'
p769
I765
sS'Bill Davis'
p770
I766
sS'Diaz'
p771
I767
sS'Allen Square'
p772
I768
sS'Sams'
p773
I769
sS'John Gaudry'
p774
I770
sS'Marco'
p775
I771
sS'Tap Bui'
p776
I772
sS'Benjamin Franklin'
p777
I773
sS'Nichols'
p778
I774
sS'Lecour'
p779
I775
sS'Chuck Gasho'
p780
I776
sS'Jerome Jordan'
p781
I777
sS'Bertsch'
p782
I778
sS'Christopher Sepulvado'
p783
I779
sS'Amy Knower'
p784
I780
sS'John McDonoghs'
p785
I781
sS'Robert Jackson'
p786
I782
sS'JP Hymel'
p787
I783
sS'Lappa'
p788
I784
sS'Warren Riley'
p789
I785
sS'Cynthia Cade'
p790
I786
sS'Jefferson'
p791
I787
sS'L.B. Landry-O'
p792
I788
sS'Nannette Jolivette Brown'
p793
I789
sS'Ted Alpaugh'
p794
I790
sS'Mercedes Montagnes'
p795
I791
sS'Hicks'
p796
I595
sS'Murray Pitts'
p797
I793
sS'Terry Ebbert'
p798
I794
sS'Hester Cottles'
p799
I795
sS'LeCesne'
p800
I796
sS'Mackles'
p801
I797
sS'Greggory Harris'
p802
I798
sS'Evans'
p803
I799
sS'Charbonnet'
p804
I800
sS'Gilbane'
p805
I801
sS'Gary Robichaux'
p806
I802
sS'Allison Bent'
p807
I803
sS'Jon Smith'
p808
I804
sS'Jonathan Bertsch'
p809
I805
sS'Altman'
p810
I806
sS'Dayphne Burnett'
p811
I807
sS'Matthews'
p812
I808
sS'Louella Givens'
p813
I809
sS'Geymann'
p814
I810
sS'Gladstone Jones'
p815
I811
sS'Clarkson'
p816
I812
sS'John Whites'
p817
I813
sS'Emily Waterfield'
p818
I814
sS'Malin'
p819
I815
sS'Mary Laurie'
p820
I816
sS'Kathy Conklin'
p821
I817
sS'Doug Harrell'
p822
I818
sS'Ruth Ramsey'
p823
I820
sS'Jonathan Wilson'
p824
I821
sS'Carol Skriloff Starr'
p825
I822
sS'John Tobler'
p826
I886
sS'John Edwards'
p827
I824
sS'Douglas'
p828
I825
sS'Carmouche'
p829
I826
sS'Stephen Perry'
p830
I827
sS'Lyces'
p831
I828
sS'Martins'
p832
I829
sS'Ryan Berni'
p833
I830
sS'Brenda Christiansen'
p834
I831
sS'Elaine Reyes'
p835
I832
sS'Cantrell'
p836
I833
sS'Yvonne Locke'
p837
I834
sS'Julien'
p838
I835
sS'James Pineda'
p839
I836
sS'Ventura'
p840
I837
sS'Robinson'
p841
I838
sS'Norris'
p842
I839
sS'James Baker'
p843
I840
sS'Marc Morial'
p844
I841
sS'Hill'
p845
I842
sS'Dee Fuchs'
p846
I843
sS'Helena Moreno'
p847
I844
sS'Henderson'
p848
I845
sS'Schedler'
p849
I846
sS'Tim Barfield'
p850
I847
sS'Dunn'
p851
I848
sS'Jessie Hoffman'
p852
I153
sS'Reed'
p853
I1054
sS'Rouse'
p854
I851
sS'Tessa Jackson'
p855
I852
sS'Alario'
p856
I853
sS'Eva Alito'
p857
I854
sS'Dupuy'
p858
I1101
sS'David Vitter'
p859
I856
sS'Niloy Gangopadhyay'
p860
I857
sS'Jared Frank'
p861
I858
sS'Cornelius Tilton'
p862
I859
sS'Larkins'
p863
I860
sS'Whitehead'
p864
I861
sS'Graves'
p865
I862
sS'Fox'
p866
I863
sS'Jernigan'
p867
I864
sS'Damon Burns'
p868
I865
sS'Wright'
p869
I866
sS'Glaser'
p870
I867
sS'Michelle Douglas'
p871
I868
sS'Waterfield'
p872
I869
sS'Ramona Perkins'
p873
I870
sS'Osborne'
p874
I871
sS'Gamble'
p875
I1287
sS'Richards'
p876
I873
sS'King'
p877
I874
sS'Moret'
p878
I875
sS'Todd'
p879
I876
sS'Trujillo'
p880
I877
sS'Graham'
p881
I878
sS'Scott Sternberg'
p882
I879
sS'Gusman'
p883
I880
sS'Pineda'
p884
I881
sS'Lynden Swayze'
p885
I882
sS'Sean Wilson'
p886
I883
sS'Deemer'
p887
I884
sS'Hiser'
p888
I885
sS'Allen Kelly'
p889
I823
sS'Lyce Francais'
p890
I887
sS'Raza'
p891
I888
sS'Grisela Jackson'
p892
I889
sS'David Gilmore'
p893
I890
sS'Sandra Bullock'
p894
I891
sS'Edwards'
p895
I892
sS'Delarge'
p896
I893
sS'Osterberg'
p897
I894
sS'Lycee Francais'
p898
I895
sS'Weishaupt'
p899
I896
sS'Barbara MacPhee'
p900
I897
sS'Pinero'
p901
I898
sS'David Muth'
p902
I899
sS'Willie Zanders'
p903
I900
sS'Charles Fenet'
p904
I901
sS'Dastugue'
p905
I902
sS'Ebbert'
p906
I903
sS'Wisner'
p907
I904
sS'Todd Schexnayder'
p908
I905
sS'Kathleen Carlin'
p909
I906
sS'Catrina Reed'
p910
I907
sS'Cox'
p911
I908
sS'Connick'
p912
I909
sS'Frank Williams'
p913
I910
sS'Caroline Roemer Shirley'
p914
I911
sS'Elizabeth Rhodes'
p915
I912
sS'Robert Delle'
p916
I913
sS'Karr'
p917
I148
sS'Miller-McCoys'
p918
I915
sS'Carter'
p919
I916
sS'Miller'
p920
I917
sS'Ali McCormick'
p921
I918
sS'Booker'
p922
I919
sS'Randy Roig'
p923
I920
sS'Nelson'
p924
I1296
sS'Dwight McKenna'
p925
I922
sS'Bernard'
p926
I923
sS'Ben Castoriano'
p927
I924
sS'Charles Maldonado'
p928
I925
sS'Adrian Morgan'
p929
I926
sS'Hesson'
p930
I927
sS'Gregory St. Etienne'
p931
I928
sS'Debra Robertson'
p932
I929
sS'Sheila Danzey'
p933
I930
sS'Sal Genovese'
p934
I931
sS'Brian Weimer'
p935
I932
sS'Arthur Williams Jr.'
p936
I933
sS'Catherine MacPhaille'
p937
I934
sS'Delgado'
p938
I935
sS'Timothy Jackson'
p939
I936
sS'Ben McLeish'
p940
I937
sS'Henderson Lewis Jr.'
p941
I938
sS'John Alario'
p942
I939
sS'Anthony Amato'
p943
I940
sS'Nadine Ramsey'
p944
I941
sS'Jolynn King'
p945
I942
sS'Cohen'
p946
I943
sS'Griffin'
p947
I944
sS'Gert Town'
p948
I945
sS'Guillory'
p949
I946
sS'Neary'
p950
I947
sS'David St. Etienne'
p951
I948
sS'Shelley Landrieu'
p952
I949
sS'Dangerfield'
p953
I950
sS'Christian Rhodes'
p954
I952
sS'Frantz'
p955
I953
sS'Frank'
p956
I954
sS'Bobby Hardrick'
p957
I955
sS'Sneed'
p958
I956
sS'Lysianne Essama'
p959
I957
sS'Darleene Peters'
p960
I958
sS'Brady'
p961
I960
sS'Brimmer'
p962
I961
sS'Bill'
p963
I962
sS'Tennyson'
p964
I963
sS'J.P. Hymel'
p965
I964
sS'Davis'
p966
I965
sS'Cassandra Youmans'
p967
I966
sS'Payton'
p968
I967
sS'Catherine Pierson'
p969
I968
sS'Singleton'
p970
I969
sS'Taylor'
p971
I959
sS'Sepulvado'
p972
I971
sS'Dolores T. Aaron Elementary'
p973
I972
sS'Kyshun Webster'
p974
I973
sS'Hawkins'
p975
I974
sS'Shaw'
p976
I975
sS'Young'
p977
I976
sS'Dolliole'
p978
I977
sS'Karen Carter Peterson'
p979
I978
sS'Hilda Young'
p980
I979
sS'Derwyn Bunton'
p981
I980
sS'Chas Roemer'
p982
I981
sS'Laura Hawkins'
p983
I982
sS'Alan Philipson'
p984
I983
sS'Franklins'
p985
I984
sS'Herb Patterson'
p986
I985
sS'Anthony'
p987
I986
sS'Harry Blumenthal'
p988
I987
sS'Hines'
p989
I988
sS'Adley'
p990
I409
sS'Esperanza'
p991
I990
sS'Nola'
p992
I991
sS'Franklin'
p993
I992
sS'Stacey Gengel'
p994
I993
sS'Kira Orange Jones'
p995
I994
sS'Quatrevaux'
p996
I995
sS'Austin'
p997
I996
sS'Shea'
p998
I997
sS'Africk'
p999
I998
sS'Bell'
p1000
I999
sS'Bennett'
p1001
I1000
sS'Susan Hutson'
p1002
I631
sS'Rodney Lilley'
p1003
I1002
sS'Michael Cowan'
p1004
I1003
sS'Lindo'
p1005
I1004
sS'Hillard Heintze'
p1006
I1005
sS'Sartisky'
p1007
I1006
sS'Matt Amoss'
p1008
I1007
sS'Rasheed'
p1009
I1008
sS'Saleun'
p1010
I1009
sS'Curtis'
p1011
I1010
sS'Harding'
p1012
I1011
sS'Alpaugh'
p1013
I1012
sS'Gail Lazard'
p1014
I1013
sS'Chervenak'
p1015
I1014
sS'Kyle Graham'
p1016
I1015
sS'Riser'
p1017
I1016
sS'Logan Crowe'
p1018
I1017
sS'Courtney Garrett'
p1019
I1018
sS'Riedlinger'
p1020
I1019
sS'Roemer Shirley'
p1021
I1020
sS'Lusher'
p1022
I1021
sS'Janice Dupuy'
p1023
I1022
sS'Wanda Guillaume'
p1024
I1023
sS'Blaine LeCesne'
p1025
I1024
sS'Lourdes Moran'
p1026
I1025
sS'Andrew Wilson'
p1027
I415
sS'Sarah Usdin'
p1028
I1027
sS'Reynolds'
p1029
I1028
sS'Scott'
p1030
I1029
sS'Turner'
p1031
I1030
sS'Eartha Johnson'
p1032
I1031
sS'Gressett'
p1033
I1032
sS'George Freeman'
p1034
I1033
sS'Tim Ryan'
p1035
I1034
sS'Darby'
p1036
I699
sS'Al Miester'
p1037
I1036
sS'Tyler Gamble'
p1038
I1037
sS'Michael Booker'
p1039
I1038
sS'Swanson'
p1040
I1039
sS'James Gray'
p1041
I1040
sS'Lyce'
p1042
I1041
sS'Rhodes'
p1043
I1042
sS'Jeff Hebert'
p1044
I1043
sS'Danzey'
p1045
I1044
sS'Sims'
p1046
I1045
sS'Vera Triplett'
p1047
I1046
sS'Roemer'
p1048
I1047
sS'Howard'
p1049
I1048
sS'Picard'
p1050
I1049
sS'Garret Graves'
p1051
I1050
sS'Mary Zervigon'
p1052
I1051
sS'John Sens'
p1053
I1052
sS'Hammond'
p1054
I1053
sS'Tim Doody'
p1055
I850
sS'Randall'
p1056
I1055
sS'Tanya Bryant'
p1057
I1056
sS'Greer'
p1058
I1057
sS'Susan Krinsky'
p1059
I1058
sS'Finegan'
p1060
I1059
sS'Green'
p1061
I1060
sS'LeBlanc'
p1062
I1061
sS'Boyer'
p1063
I1062
sS'Moton'
p1064
I1064
sS'Kendal Turner'
p1065
I1065
sS'Stan Smith'
p1066
I1066
sS'Wheatley'
p1067
I849
sS'Lauren Hightower'
p1068
I1067
sS'Nancy Marshall'
p1069
I642
sS'Brian Egana'
p1070
I1069
sS'Dominique Wilson'
p1071
I1070
sS'Jim Nelson'
p1072
I423
sS'Daniels'
p1073
I1072
sS'Mitch Landrieu'
p1074
I1073
sS'Avery Corenswet'
p1075
I1074
sS'Robert Burvant'
p1076
I1075
sS'Akili'
p1077
I1076
sS'Karen Gadbois'
p1078
I1077
sS'Lafitte'
p1079
I1078
sS'Barbier'
p1080
I1079
sS'Lemle'
p1081
I1080
sS'Nash'
p1082
I1081
sS'Agnieszka McPeak'
p1083
I1082
sS'Carolyn Hill'
p1084
I1083
sS'Frosch'
p1085
I1084
sS'Jay Altman'
p1086
I1085
sS'Reidlinger'
p1087
I1086
sS'Dana Kaplan'
p1088
I1088
sS'Tiffany Hardrick'
p1089
I1089
sS'Sophie B. Wright'
p1090
I1090
sS'Blumenthal'
p1091
I1091
sS'Clayton'
p1092
I1092
sS'Bankston'
p1093
I1093
sS'Ashton Ryan Jr.'
p1094
I1094
sS'Thomas Robichaux'
p1095
I1095
sS'Ryan'
p1096
I1096
sS'Bernell St. Cyr'
p1097
I1097
sS'Garcia'
p1098
I1098
sS'Elizabeth Sigler'
p1099
I1099
sS'Barthelemy'
p1100
I1100
sS'Greg Thompson'
p1101
I855
sS'Margaret Nguyen'
p1102
I1102
sS'Abe Handler'
p1103
I1103
sS'Kathleen Blanco'
p1104
I1104
sS'Dave Whiddon'
p1105
I1105
sS'Shaun Rafferty'
p1106
I1179
sS'Adriaan'
p1107
I1107
sS'Wilson'
p1108
I1108
sS'Jacqueline Simon'
p1109
I1109
sS'Smith'
p1110
I1110
sS'Phillips'
p1111
I1111
sS'Favre'
p1112
I1112
sS'Julianne Ruocco'
p1113
I1113
sS'Brooks'
p1114
I1114
sS'Allison Bent Bowler'
p1115
I1115
sS'Hilburn'
p1116
I1116
sS'Tim Bryant'
p1117
I1117
sS'Gatehouse'
p1118
I1118
sS'Colton'
p1119
I1119
sS'Janet Howard'
p1120
I1120
sS'Cao'
p1121
I1121
sS'Jeff Teague'
p1122
I1122
sS'Kevin Kane'
p1123
I1123
sS'Terri Smith'
p1124
I1124
sS'Kern Reese'
p1125
I1125
sS'Kristyna Jones'
p1126
I1126
sS'Ora Wiley'
p1127
I1127
sS'Landis'
p1128
I1128
sS'Ben Kleban'
p1129
I1129
sS'Philipson'
p1130
I1130
sS'Mills'
p1131
I1131
sS'Miller-McCoy'
p1132
I1132
sS'Donahue'
p1133
I1133
sS'Juaquana Stewart'
p1134
I1134
sS'Julian Parker'
p1135
I1135
sS'John Bel Edwards'
p1136
I1136
sS'Edwin Edwards'
p1137
I1137
sS'Salmon Shomade'
p1138
I1138
sS'Lagniappe'
p1139
I1139
sS'Vera'
p1140
I1140
sS'Arnie Fielkow'
p1141
I1141
sS'Waganfeald'
p1142
I1142
sS'Susan Norwood'
p1143
I1143
sS'Victoria Johnson'
p1144
I1144
sS'Colin Brooks'
p1145
I1145
sS'James Austin'
p1146
I1146
sS'Keith Hardie'
p1147
I1147
sS'David Winkler-Schmit'
p1148
I1148
sS'Morrell'
p1149
I1149
sS'Marjorie Esman'
p1150
I1150
sS'Janet Gaudet'
p1151
I1151
sS'Roland Doucette'
p1152
I1152
sS'Jack Carey'
p1153
I1153
sS'Jentoft'
p1154
I1154
sS'Duris Holmes'
p1155
I1155
sS'Dejean'
p1156
I1156
sS'Angela Kinlaw'
p1157
I1157
sS'Dana Henry'
p1158
I1158
sS'Fielkow'
p1159
I1159
sS'Delisalynn'
p1160
I99
sS'Brent Washington'
p1161
I1161
sS'Kevin Guitterrez'
p1162
I1162
sS'Doris Hicks'
p1163
I1163
sS'Hawf'
p1164
I1164
sS'James LeBlanc'
p1165
I1165
sS'Walsworth'
p1166
I1166
sS'Porcari'
p1167
I819
sS'Burnett'
p1168
I1168
sS'Harney'
p1169
I1169
sS'Robert Adley'
p1170
I1170
sS'Ellison'
p1171
I1171
sS'Wolff'
p1172
I217
sS'Della Hasselle'
p1173
I1173
sS'Kunkel'
p1174
I1174
sS'Richard'
p1175
I1175
sS'Felton'
p1176
I1176
sS'Paul Rainwater'
p1177
I1318
sS'Simms'
p1178
I1178
sS'Shelia Hebert'
p1179
I677
sS'Charles Foti'
p1180
I1106
sS'Kristen Lozada'
p1181
I219
sS'Boyett'
p1182
I276
sS'Kim Henry'
p1183
I1182
sS'Carla Major'
p1184
I1183
sS'Tran'
p1185
I1184
sS'Wayne James'
p1186
I318
sS'Patricia Adams'
p1187
I1186
sS'Gisleson Palmer'
p1188
I1187
sS'Barbara Griffin'
p1189
I1188
sS'Kindall Petri'
p1190
I1189
sS'Hedge-Morrell'
p1191
I1190
sS'Julie MacFetters'
p1192
I1191
sS'Ostroske'
p1193
I1192
sS'Michael Todd'
p1194
I1193
sS'Keeanya Dupre'
p1195
I1194
sS'McNamara'
p1196
I1195
sS'Nicole Boudreaux'
p1197
I1196
sS'Conrad Appel'
p1198
I1197
sS'Bishop'
p1199
I1198
sS'Jack Bergman'
p1200
I1199
sS'L.B. Landry'
p1201
I1200
sS'Ben Franklins'
p1202
I1201
sS'Jolene Jeff'
p1203
I1202
sS'Stephen Tremaine'
p1204
I1203
sS'Edna Karr'
p1205
I1204
sS'Raashand Hamilton'
p1206
I1205
sS'Barbara Richard'
p1207
I1206
sS'Greg Albrecht'
p1208
I1207
sS'Chris Broadwater'
p1209
I1208
sS'Pennington'
p1210
I1209
sS'Kendall Petri'
p1211
I1210
sS'Sheila Nelson'
p1212
I1211
sS'James Henderson'
p1213
I1212
sS'J.P. Morrell'
p1214
I1213
sS'Joel Vilmenay'
p1215
I1214
sS'Ruth Kullman'
p1216
I1215
sS'Don Wheat'
p1217
I1216
sS'Stelly'
p1218
I1217
sS'Rosner'
p1219
I1218
sS'Benjamin Orillon'
p1220
I1219
sS'Sullivan'
p1221
I1220
sS'Biagas'
p1222
I1221
sS'NORA'
p1223
I1222
sS'Jennifer Weishaupt'
p1224
I1223
sS'Gilmore'
p1225
I1224
sS'C.B. Forgotston'
p1226
I1225
sS'Petri'
p1227
I1226
sS'Sens'
p1228
I1227
sS'Woody Koppel'
p1229
I1228
sS'Crenshaw'
p1230
I1229
sS'Campo'
p1231
I1230
sS'Moreno'
p1232
I1231
sS'Harte'
p1233
I564
sS'Donnica Conway'
p1234
I1233
sS'Billy Hatchett'
p1235
I1234
sS'Woods'
p1236
I1235
sS'Laborde'
p1237
I1236
sS'Rosenthal'
p1238
I1237
sS'Brice'
p1239
I1238
sS'Kathleen Padian'
p1240
I1239
sS'Marullo'
p1241
I1240
sS'Warren Eastons'
p1242
I1241
sS'Gary Ostroske'
p1243
I1242
sS'Eric Griggs'
p1244
I1243
sS'Sternberg'
p1245
I1244
sS'Craigs'
p1246
I1245
sS'Cannizzaro'
p1247
I1246
sS'Jim Singleton'
p1248
I1247
sS'Mobley'
p1249
I1248
sS'Richardson'
p1250
I1249
sS'Peter Harding'
p1251
I1250
sS'Wildes'
p1252
I1251
sS'Al Shaw'
p1253
I1252
sS'Christopher Sepulvados'
p1254
I1253
sS'Kristy Nichols'
p1255
I1254
sS'Yon'
p1256
I1255
sS'Jacobs'
p1257
I1256
sS'Varley'
p1258
I1257
sS'Square'
p1259
I970
sS'Marchand'
p1260
I1258
sS'Rick Conway'
p1261
I290
sS'Jecklin'
p1262
I1260
sS'Ben Marcovitz'
p1263
I1261
sS'Goyeneche'
p1264
I1262
sS'Leslie Ellison'
p1265
I1263
sS'Jacqueline Smith'
p1266
I1264
sS'Keith Twitchell'
p1267
I1265
sS'Laurie White'
p1268
I1266
sS'Lapeyre'
p1269
I1267
sS'Leslie Jacobs'
p1270
I1268
sS'Reid'
p1271
I1269
sS'Tania Moore'
p1272
I1270
sS'Mitchell'
p1273
I1271
sS'Marlin Gusmans'
p1274
I1272
sS'Mackay'
p1275
I1273
sS'Perkins'
p1276
I1274
sS'Moran'
p1277
I1275
sS'Simonne Robinson'
p1278
I1276
sS'C.J. Bower'
p1279
I1277
sS'Hal Brown'
p1280
I1278
sS'Paul Barron'
p1281
I1279
sS'Cecilia Garcia'
p1282
I1280
sS'Wanda Anderson-Guillaume'
p1283
I1281
sS'Jon Johnsons'
p1284
I1282
sS'Zervigon'
p1285
I1283
sS'Jim Letten'
p1286
I1284
sS'Lozier'
p1287
I1285
sS'Avione Pichon'
p1288
I1286
sS'Jeff Angers'
p1289
I872
sS'Tracie Washington'
p1290
I1288
sS'Liza Sherman'
p1291
I673
sS'Marcellus Grace'
p1292
I1290
sS'Jay Lapeyre'
p1293
I1291
sS'OConnell'
p1294
I1292
sS'Jasmine Haralson'
p1295
I1293
sS'Joseph Gilyot'
p1296
I1294
sS'Barack Obama'
p1297
I1295
sS'Clements'
p1298
I921
sS'Chenevert'
p1299
I1297
sS'Penny Dastugue'
p1300
I1298
sS'Rebekah Cain'
p1301
I1299
sS'Ann Meese'
p1302
I1300
sS'Rachal'
p1303
I1301
sS'Paul Pastorek'
p1304
I1302
sS'Iverson'
p1305
I1303
sS'Catherine Boozer'
p1306
I1304
sS'Emily Wolff'
p1307
I1305
sS'Cade'
p1308
I1306
sS'Susan Weeks'
p1309
I1307
sS'Ben Blanchard'
p1310
I1308
sS'Pierre Capdau'
p1311
I1309
sS'Mehok'
p1312
I1310
sS'George Rabb'
p1313
I1311
sS'John McDonogh'
p1314
I1312
sS'Raby'
p1315
I1313
sS'Rabb'
p1316
I1314
sS'Conley'
p1317
I1315
sS'Shahan'
p1318
I1316
sS'Crocker'
p1319
I59
sS'McCormick'
p1320
I1317
sS'Barron'
p1321
I1319
sS'Baker'
p1322
I1320
sS'Paul Vallas'
p1323
I1321
sS'Bryant'
p1324
I1322
sS'Paulette Bruno'
p1325
I1323
sS'Leslie Bouie'
p1326
I1324
sS'Boozer'
p1327
I1325
sS'Chester'
p1328
I1326
sS'Mark Morgan'
p1329
I1327
sS'Marina Schoen'
p1330
I1328
sS'Michelle Craig'
p1331
I1329
sS'Timolynn Sams'
p1332
I1330
sS'Jason Coleman'
p1333
I1331
sS'Stephen Osborn'
p1334
I1332
sS'Cedric Grant'
p1335
I1366
sS'Paul Sens'
p1336
I1334
sS'Joe Long'
p1337
I1335
sS'Morris Jeffs'
p1338
I1336
sS'Thomas-Reynolds'
p1339
I1337
sS'O. Perry Walker'
p1340
I1338
sS'Nolan Marshall'
p1341
I1339
sS'Ramsey'
p1342
I1340
sS'Andrew H. Wilson'
p1343
I1341
sS'Medard H. Nelson'
p1344
I1342
sS'Blake Oakes'
p1345
I1343
sS'Ronald McDonald'
p1346
I1345
sS'Paige Saleun'
p1347
I1346
sS'Gangopadhyay'
p1348
I1347
sS'Lushers'
p1349
I1348
sS'Ive'
p1350
I1349
sS'Sean Berner'
p1351
I1350
sS'Jim Richardson'
p1352
I1351
sS'Einstein'
p1353
I1352
sS'John Jones'
p1354
I1353
sS'Hymel'
p1355
I1354
sS'Diana Bajoie'
p1356
I1355
sS'Charles Varley'
p1357
I1356
sS'Berrigan'
p1358
I1357
sS'Jenny Hunter'
p1359
I1358
sS'Jr.'
p1360
I1359
sS'McKneely'
p1361
I1360
sS'John Mac'
p1362
I1361
sS'Shanda Gentry'
p1363
I1362
sS'Guidry'
p1364
I1363
sS'Faircloth'
p1365
I1364
sS'Morgan'
p1366
I1365
sS'Ben Franklin'
p1367
I1333
sS'Stewart'
p1368
I1367
sS'Rafael Goyeneche'
p1369
I1368
sS'Neilson'
p1370
I1369
sS'Tom Gogola'
p1371
I587
sS'Helen Berrigan'
p1372
I1370
s.