(dp1
S'Robert Rachal'
p2
I0
sS'McClure'
p3
I1
sS'Annette'
p4
I2
sS'Lyce Franais'
p5
I256
sS'Lyce Franais de la Nouvelle-Orlans'
p6
I3
sS'Kevin Wildes'
p7
I59
sS'Joseph A. Craig'
p8
I5
sS'HANO'
p9
I6
sS'Susan Guidry'
p10
I7
sS'Kathy Litchfield'
p11
I8
sS'Henry'
p12
I9
sS'Robert Scott'
p13
I10
sS'Gilbert Buras'
p14
I11
sS'Thomas'
p15
I12
sS'Dana Peterson'
p16
I13
sS'Lawrence Kullman'
p17
I14
sS'Paul'
p18
I15
sS'Mitch'
p19
I16
sS'Jones Walker'
p20
I17
sS'Cynthia Williams'
p21
I18
sS'Seth Bloom'
p22
I19
sS'Bailey'
p23
I20
sS'Collins'
p24
I21
sS'Zachary Wool'
p25
I22
sS'Leikin'
p26
I23
sS'Barry Landry'
p27
I24
sS'Katrina Jackson'
p28
I25
sS'Tillison'
p29
I26
sS'Sylvia Arcenaux-Ellison'
p30
I27
sS'Lawliss Turner'
p31
I262
sS'Akilis'
p32
I29
sS'Leila Eames'
p33
I30
sS'Andry'
p34
I31
sS'David Napoleon'
p35
I32
sS'Pierson'
p36
I33
sS'Swayze'
p37
I34
sS'Medard Nelson'
p38
I35
sS'Lynette Brice'
p39
I36
sS'Landrieus'
p40
I37
sS'Dan Forman'
p41
I38
sS'Adam Hawf'
p42
I39
sS'Pam Laborde'
p43
I40
sS'Kinlaw'
p44
I41
sS'Siona LaFrance'
p45
I42
sS'Defillo'
p46
I43
sS'Bouie'
p47
I44
sS'John Wettermark'
p48
I45
sS'LaToya Cantrell'
p49
I46
sS'Kirk Talbot'
p50
I47
sS'Gentry'
p51
I48
sS'Neil Abramson'
p52
I49
sS'Alisa Dupre'
p53
I50
sS'Morris Jeff'
p54
I51
sS'Elizabeth Chaponot'
p55
I52
sS'Paul Kemp'
p56
I53
sS'Wiley Ates'
p57
I54
sS'Gilyot'
p58
I55
sS'Nayita Wilson'
p59
I56
sS'Wondwossen'
p60
I57
sS'Anderson Baker'
p61
I58
sS'Shirley'
p62
I4
sS'Keith Sanders'
p63
I1105
sS'Ozanne'
p64
I61
sS'Will Bradshaw'
p65
I382
sS'Beebe'
p66
I63
sS'Walsh'
p67
I64
sS'Brett Hunt'
p68
I65
sS'Le'
p69
I66
sS'Warren Easton'
p70
I67
sS'Twitchell'
p71
I68
sS'Doris Roch-Hicks'
p72
I69
sS'Bruno'
p73
I431
sS'Jessica Williams'
p74
I71
sS'Leger'
p75
I72
sS'Gardner'
p76
I73
sS'St. Cyr'
p77
I74
sS'John Hope'
p78
I75
sS'Ira Thomas'
p79
I76
sS'Bates'
p80
I77
sS'Kate Mehok'
p81
I78
sS'David Bailey'
p82
I79
sS'Reese'
p83
I80
sS'Amoss'
p84
I81
sS'Glapion'
p85
I82
sS'Jill Otis'
p86
I83
sS'Kristin Huston'
p87
I84
sS'David Benelli'
p88
I85
sS'Fannin'
p89
I86
sS'Lundbeck'
p90
I87
sS'Slager'
p91
I88
sS'Zapata'
p92
I89
sS'Robertson'
p93
I90
sS'Michael Harrison'
p94
I91
sS'Gabriel Bordenave'
p95
I92
sS'Sizeler Thompson Brown'
p96
I93
sS'Blanco'
p97
I94
sS'Sean Lansing'
p98
I95
sS'Pamela Randall'
p99
I96
sS'Beck'
p100
I97
sS'Harris'
p101
I98
sS'Pate'
p102
I99
sS'McCormack Baron Salazar'
p103
I1178
sS'Christiansen'
p104
I101
sS'Alice Harte'
p105
I102
sS'B.W. Cooper'
p106
I103
sS'Christine Mitchell'
p107
I104
sS'Kopplin'
p108
I105
sS'Aluise'
p109
I106
sS'Lee Reid'
p110
I107
sS'Mark Davis'
p111
I108
sS'Lockett'
p112
I109
sS'Antoine'
p113
I110
sS'Latoya Cantrell'
p114
I111
sS'Beasley'
p115
I112
sS'John Kennedy'
p116
I113
sS'Gustav'
p117
I114
sS'Sandra Cahill'
p118
I115
sS'Goodwin'
p119
I116
sS'Sam Joel'
p120
I117
sS'Marc Ehrhardt'
p121
I118
sS'James Hilburn'
p122
I119
sS'Vallas'
p123
I120
sS'Vaughn Fauria'
p124
I121
sS'Lorin Crenshaw'
p125
I122
sS'Duane Drucker'
p126
I123
sS'Julius Kimbrough'
p127
I124
sS'Tim Gray'
p128
I125
sS'Ward'
p129
I126
sS'Napoleon'
p130
I127
sS'Meyer'
p131
I128
sS'Serpas'
p132
I129
sS'Hunnewell'
p133
I719
sS'Ed Graf'
p134
I131
sS'Lopinto'
p135
I132
sS'Bajoie'
p136
I133
sS'Daschbach'
p137
I134
sS'Mike Bagot'
p138
I135
sS'Austin Badon'
p139
I136
sS'Rosenberg'
p140
I137
sS'Nick Felton'
p141
I138
sS'Nancy Shoemaker'
p142
I139
sS'Cooper'
p143
I140
sS'Karran Harper Royal'
p144
I141
sS'Walter Paulson'
p145
I142
sS'Daniel OConnell'
p146
I143
sS'Donald Pate'
p147
I144
sS'Vilmenay'
p148
I145
sS'Stacy Head'
p149
I146
sS'Charles Rice'
p150
I147
sS'Julie Lause'
p151
I148
sS'Marlon Ford'
p152
I149
sS'Sidney Barthelemy'
p153
I150
sS'Alexander'
p154
I151
sS'Ryan Mast'
p155
I152
sS'Andrew Ward'
p156
I930
sS'Guitterrez'
p157
I155
sS'Bagneris'
p158
I157
sS'Michael Bagneris'
p159
I1081
sS'Denise Williams'
p160
I159
sS'Calvin Johnson'
p161
I160
sS'Bobby Jindals'
p162
I161
sS'Craig'
p163
I162
sS'Guerin'
p164
I163
sS'Lisa Tabb'
p165
I164
sS'Jim Huger'
p166
I165
sS'Kwame Smith'
p167
I166
sS'Andrew Abrams'
p168
I167
sS'Alison Hartman'
p169
I168
sS'Edward Hynes'
p170
I169
sS'Ferris'
p171
I170
sS'Cary Grant'
p172
I171
sS'Paula Griffin'
p173
I172
sS'Timothy Rusnak'
p174
I173
sS'Williams'
p175
I174
sS'Kathy Riedlinger'
p176
I175
sS'Serpe'
p177
I176
sS'Gisele Schexnider'
p178
I177
sS'Benenson'
p179
I178
sS'Stephen Estopinal'
p180
I179
sS'Jones'
p181
I180
sS'Hearin'
p182
I181
sS'Monica Edwards'
p183
I182
sS'Candal'
p184
I183
sS'Bono'
p185
I184
sS'Olivier'
p186
I185
sS'Buckley'
p187
I186
sS'Paige'
p188
I187
sS'Robert Sloan'
p189
I188
sS'Eades Hogue'
p190
I189
sS'Lewis'
p191
I190
sS'Rubenstein'
p192
I191
sS'Will Kulick'
p193
I192
sS'Diana Lewis'
p194
I193
sS'Zeringue'
p195
I194
sS'DJuan Hernandez'
p196
I195
sS'Carey'
p197
I196
sS'McDonough'
p198
I197
sS'Foti'
p199
I198
sS'Susie Morgan'
p200
I199
sS'Doug Guidry'
p201
I200
sS'Koppel'
p202
I201
sS'Huger'
p203
I202
sS'John Hummel'
p204
I203
sS'Joel Robideaux'
p205
I204
sS'Batiste'
p206
I206
sS'Sharon Clark'
p207
I207
sS'Moore'
p208
I208
sS'Ken Ducote'
p209
I209
sS'Douglas Evans'
p210
I210
sS'Pearce'
p211
I211
sS'Lisa Daggs'
p212
I212
sS'Bradshaw'
p213
I213
sS'Kyle Plotkin'
p214
I214
sS'Perez'
p215
I215
sS'Vinnett'
p216
I216
sS'Jackson'
p217
I217
sS'Michael Richard'
p218
I218
sS'Ripski'
p219
I219
sS'Sholes Sr.'
p220
I220
sS'Anderson'
p221
I221
sS'Foster'
p222
I1190
sS'Butler'
p223
I223
sS'John'
p224
I1198
sS'Kristen Ponthier'
p225
I225
sS'Dardenne'
p226
I226
sS'John Broussard'
p227
I227
sS'Laura Charbonnet'
p228
I228
sS'Ernest N. Morial'
p229
I229
sS'Greenwald'
p230
I230
sS'Hurricane Isaac'
p231
I231
sS'Sodexo'
p232
I232
sS'Bobby Jindal'
p233
I233
sS'Carol Asher'
p234
I234
sS'Esman'
p235
I235
sS'Michelle Brown'
p236
I236
sS'Maurice Lightfoot'
p237
I237
sS'Gaudet'
p238
I238
sS'Elizabeth Ostberg'
p239
I239
sS'Candice Frazier'
p240
I240
sS'Dibert'
p241
I241
sS'Wesley Bishop'
p242
I242
sS'Mireille Rabat'
p243
I243
sS'Harrell'
p244
I244
sS'Bryan Collins'
p245
I245
sS'Hadley'
p246
I246
sS'John White'
p247
I247
sS'Hernandez'
p248
I248
sS'Hillard'
p249
I249
sS'Claudia Kent'
p250
I250
sS'Carl Indest'
p251
I251
sS'Adams'
p252
I252
sS'Egana'
p253
I253
sS'Derbigny'
p254
I254
sS'Stuart'
p255
I255
sS'Pastorek'
p256
I1195
sS'Amy George-Hirons'
p257
I257
sS'Holmes'
p258
I258
sS'Barbara McPhee'
p259
I259
sS'Emily Danielson'
p260
I260
sS'Conklin'
p261
I261
sS'Bechet'
p262
I28
sS'Charline Wright'
p263
I263
sS'Harrison'
p264
I264
sS'Campbell'
p265
I265
sS'Hema Banangada'
p266
I355
sS'Bush'
p267
I266
sS'Courtney'
p268
I267
sS'Lindsey Moore'
p269
I268
sS'Mary Landrieus'
p270
I269
sS'Jeffrey'
p271
I270
sS'Abrams'
p272
I271
sS'LaMothe'
p273
I272
sS'Chana Benenson'
p274
I273
sS'Ed Quatrevaux'
p275
I274
sS'Bordson-Bozzo'
p276
I275
sS'Kim Bondy'
p277
I276
sS'Roch-Hicks'
p278
I277
sS'Eisenhower'
p279
I278
sS'Shes'
p280
I279
sS'Morris'
p281
I280
sS'Patterson'
p282
I1199
sS'Gina Dupart'
p283
I282
sS'Pelican'
p284
I283
sS'Brett Geymann'
p285
I284
sS'Stephen Rosenthal'
p286
I285
sS'Lisa Hudson'
p287
I286
sS'Andy Kopplin'
p288
I287
sS'Jeff Zapata'
p289
I288
sS'Ellen Bankston'
p290
I289
sS'Jeffrey Rouse'
p291
I290
sS'Colleen Mackay'
p292
I291
sS'Mickey Landry'
p293
I292
sS'Hassinger'
p294
I293
sS'Mardi Gras'
p295
I294
sS'Carol McCall'
p296
I301
sS'James'
p297
I296
sS'Schexnider'
p298
I297
sS'Forcier'
p299
I298
sS'Kelly Batiste'
p300
I299
sS'Leon Cannizzaro'
p301
I300
sS'Norman Foster'
p302
I1277
sS'Winkler-Schmit'
p303
I302
sS'Ed Blakely'
p304
I303
sS'Frank Buckley'
p305
I304
sS'Keith Bartlett'
p306
I305
sS'Caldwell'
p307
I306
sS'Soros'
p308
I307
sS'Mary Joseph'
p309
I308
sS'Ostberg'
p310
I309
sS'Triplett'
p311
I310
sS'Noel'
p312
I311
sS'Jean Montes'
p313
I312
sS'David Garland'
p314
I154
sS'Lee'
p315
I314
sS'Kristina Kent'
p316
I315
sS'Lee Pryor'
p317
I376
sS'Lucas Diaz'
p318
I317
sS'Juanita Chenevert'
p319
I318
sS'Ehrhardt'
p320
I669
sS'Mackel'
p321
I320
sS'Carol Whelan'
p322
I321
sS'Graf'
p323
I322
sS'Todd Purvis'
p324
I323
sS'Weimer'
p325
I324
sS'Ronicka Briscoe'
p326
I1203
sS'Josh Densen'
p327
I326
sS'Perricone'
p328
I327
sS'Robideaux'
p329
I459
sS'Jim Raby'
p330
I329
sS'Bob Turner'
p331
I330
sS'Woldenberg'
p332
I331
sS'Parrish'
p333
I332
sS'James Huger'
p334
I333
sS'Chris Hines'
p335
I334
sS'Grandiere'
p336
I521
sS'Clarksons'
p337
I336
sS'Sarah T. Reed'
p338
I337
sS'Steve Beatty'
p339
I156
sS'Marta Jewson'
p340
I339
sS'F.H. Paschen'
p341
I340
sS'Hudson'
p342
I579
sS'Patricia Ventura'
p343
I585
sS'Dan OConnell'
p344
I587
sS'Mary Jacobs Jones'
p345
I344
sS'Aesha Rasheed'
p346
I345
sS'David Jackson'
p347
I346
sS'JVann Martin'
p348
I347
sS'Mayer'
p349
I348
sS'Goetzee'
p350
I349
sS'Doug Finegan'
p351
I350
sS'Rachel Wisdom'
p352
I351
sS'Gurtner'
p353
I352
sS'Mays'
p354
I353
sS'Patrick Walsh'
p355
I354
sS'Shawn Barney'
p356
I433
sS'Ryan Bates'
p357
I356
sS'Gasho'
p358
I357
sS'Bill Langenstein'
p359
I358
sS'Cambre'
p360
I359
sS'Arnold'
p361
I360
sS'Nan Ryan'
p362
I361
sS'Jeremy Hunnewell'
p363
I362
sS'Charles'
p364
I363
sS'Erroll Williams'
p365
I364
sS'Jim Schneiders'
p366
I365
sS'Marshall Fitz'
p367
I366
sS'Mike Greer'
p368
I367
sS'Boyle'
p369
I368
sS'Ridley'
p370
I369
sS'Martin Feibelman'
p371
I370
sS'Milestone'
p372
I371
sS'John Dibert'
p373
I372
sS'Mark Caramanica'
p374
I753
sS'Linda Launey'
p375
I374
sS'Jerry Sneed'
p376
I375
sS'Lause'
p377
I316
sS'Andrea Thomas-Reynolds'
p378
I377
sS'James Reiss'
p379
I378
sS'Vitter'
p380
I379
sS'Parker'
p381
I380
sS'Joseph Kimbrell'
p382
I381
sS'Crowe'
p383
I62
sS'Mitch Landrieus'
p384
I383
sS'Lawrence Vinnett'
p385
I384
sS'Behrman'
p386
I385
sS'George'
p387
I386
sS'Gray'
p388
I319
sS'Reilly'
p389
I387
sS'Rice'
p390
I388
sS'John Schroder'
p391
I389
sS'Langston Hughes'
p392
I390
sS'Cahill'
p393
I391
sS'Head'
p394
I392
sS'Robin Gorman'
p395
I393
sS'Ray Nagin'
p396
I394
sS'Joseph Neary'
p397
I395
sS'Sandra Monroe'
p398
I396
sS'Lopez'
p399
I397
sS'Ed Blakley'
p400
I398
sS'Dow Edwards'
p401
I399
sS'Ray Nagins'
p402
I400
sS'Bernie Pinsonat'
p403
I401
sS'Keith Amacker'
p404
I402
sS'Gary Clements'
p405
I403
sS'Jean-Jacques Grandiere'
p406
I404
sS'Stupak'
p407
I405
sS'Brian K. Richburg'
p408
I406
sS'Charmaine Robertson'
p409
I407
sS'Minyard'
p410
I408
sS'Mullin'
p411
I409
sS'Sharon Courtney'
p412
I410
sS'Coleman Ridley'
p413
I411
sS'Isaac'
p414
I412
sS'Sanders'
p415
I413
sS'Joe Daschbach'
p416
I414
sS'Appel'
p417
I415
sS'Barfield'
p418
I416
sS'Ryan Bennett'
p419
I1007
sS'Kleckley'
p420
I418
sS'Ben Hicks'
p421
I419
sS'Freret'
p422
I205
sS'Ashe'
p423
I421
sS'Munchak'
p424
I422
sS'Asher'
p425
I1044
sS'Barr'
p426
I424
sS'George Washington Carver'
p427
I425
sS'Priestley'
p428
I426
sS'Benelli'
p429
I427
sS'Anh Cao'
p430
I428
sS'Amedee'
p431
I429
sS'Abney'
p432
I430
sS'Todd James'
p433
I70
sS'Courtney Bagneris'
p434
I1089
sS'Errol George'
p435
I434
sS'Jackie Clarkson'
p436
I435
sS'Southall'
p437
I436
sS'Joseph Cao'
p438
I437
sS'Mary Brown'
p439
I438
sS'Densen'
p440
I439
sS'Garnesha Crawford'
p441
I440
sS'Marvin Thompson'
p442
I441
sS'Sean Bruno'
p443
I442
sS'Cannizzaros'
p444
I443
sS'Martin'
p445
I444
sS'Geneva Longlois-Marney'
p446
I445
sS'Shawne Favre'
p447
I446
sS'Jamar McKneely'
p448
I447
sS'Kelly McClure'
p449
I448
sS'Andrew Yon'
p450
I449
sS'Jen Walcott'
p451
I450
sS'Lee Hampton'
p452
I451
sS'Jean Claude Brunet'
p453
I452
sS'Hester'
p454
I453
sS'White'
p455
I454
sS'Cook Sr.'
p456
I455
sS'Windi Brown'
p457
I456
sS'Larry Eustis'
p458
I457
sS'Hightower'
p459
I458
sS'Louisianas'
p460
I328
sS'Melissa Jagers'
p461
I460
sS'Ed Blouin'
p462
I461
sS'Cherie Lopez'
p463
I462
sS'Ariella Cohen'
p464
I463
sS'Padian'
p465
I464
sS'Gordon'
p466
I465
sS'Kemp'
p467
I466
sS'Webster'
p468
I467
sS'Glasser'
p469
I468
sS'Stephens'
p470
I469
sS'Julie Walker'
p471
I470
sS'Chuck Kleckley'
p472
I471
sS'McCampbell'
p473
I472
sS'Belinda Cambre'
p474
I473
sS'Pete Rodway'
p475
I474
sS'Darius Munchak'
p476
I475
sS'McLeish'
p477
I476
sS'Sheppard'
p478
I477
sS'Monique Cola'
p479
I478
sS'Lauren Pigeon'
p480
I479
sS'John Williams'
p481
I480
sS'Pierre A. Capdau'
p482
I481
sS'Caramanica'
p483
I482
sS'Andrew Shahan'
p484
I483
sS'Collette Creppell'
p485
I484
sS'Harry Rosenberg'
p486
I485
sS'Darleen Mipro'
p487
I486
sS'Medley'
p488
I767
sS'Alysson Mills'
p489
I488
sS'Kalifey-Aluise'
p490
I489
sS'Kabacoff'
p491
I490
sS'Howell'
p492
I491
sS'Anna Koehl'
p493
I492
sS'Jon Wool'
p494
I493
sS'Landry'
p495
I494
sS'Templeman'
p496
I495
sS'Hoffman'
p497
I496
sS'Palmer'
p498
I497
sS'Mike Lappa'
p499
I769
sS'Bob Stefani'
p500
I499
sS'Abramson'
p501
I500
sS'Lee Caston'
p502
I501
sS'Alcazar'
p503
I502
sS'Capdau'
p504
I503
sS'Carolyn Chandler'
p505
I504
sS'Peterson'
p506
I505
sS'Hardrick'
p507
I506
sS'Alison Mehr'
p508
I507
sS'Cali'
p509
I508
sS'Crawford'
p510
I509
sS'Hicks-Cook'
p511
I510
sS'Grandire'
p512
I511
sS'Brett Bonin'
p513
I512
sS'Gail Armant'
p514
I513
sS'Montagnes'
p515
I514
sS'Paul Habans Elementary'
p516
I515
sS'Doucette'
p517
I516
sS'Walt Leger'
p518
I517
sS'Robert Corvo'
p519
I518
sS'Stephen Boyard'
p520
I519
sS'Joseph S. Clark'
p521
I520
sS'Chris Lozier'
p522
I335
sS'LaBruzzo'
p523
I522
sS'Donald Herry'
p524
I523
sS'Mince'
p525
I524
sS'Don Eduardo'
p526
I525
sS'Monroe'
p527
I526
sS'Jean Monts'
p528
I527
sS'Fran Trujillo'
p529
I528
sS'Barry'
p530
I529
sS'Alarcon'
p531
I553
sS'Usdin'
p532
I531
sS'Kent'
p533
I532
sS'Kristen Gisleson Palmer'
p534
I533
sS'Ann Salzer'
p535
I534
sS'Walter L. Cohen'
p536
I535
sS'Bunton'
p537
I536
sS'Piazza'
p538
I537
sS'Cameron Henry'
p539
I634
sS'Louis'
p540
I538
sS'Toranto'
p541
I539
sS'Mark Boucree'
p542
I540
sS'Pres Kabacoff'
p543
I541
sS'Ronal Serpas'
p544
I542
sS'Tilton'
p545
I543
sS'Carol McCree'
p546
I544
sS'Allen'
p547
I545
sS'Vanessa Gueringer'
p548
I546
sS'Grant'
p549
I547
sS'Monica Candal'
p550
I548
sS'Jackson Knowles'
p551
I549
sS'Markowitz'
p552
I550
sS'Arthur Hardy'
p553
I551
sS'Melancon'
p554
I552
sS'Patricia Perkins'
p555
I530
sS'Berner'
p556
I554
sS'Kathryn Broussard'
p557
I555
sS'Johnson'
p558
I556
sS'Arthur Ashe'
p559
I557
sS'Burvant'
p560
I558
sS'Mireille Rabate'
p561
I559
sS'Mipro'
p562
I560
sS'Jay Dardenne'
p563
I561
sS'Carver'
p564
I562
sS'House Bill'
p565
I563
sS'Phipps'
p566
I564
sS'Silva'
p567
I565
sS'Kenneth Polite'
p568
I566
sS'Marlin Gusman'
p569
I567
sS'Dennis McGuire'
p570
I568
sS'John Georges'
p571
I569
sS'Patrick Dobard'
p572
I570
sS'Riley'
p573
I571
sS'John Hiser'
p574
I572
sS'Kisa Holmes'
p575
I573
sS'Jim Dukes'
p576
I1250
sS'Hynes'
p577
I575
sS'Bui'
p578
I576
sS'Claiborne'
p579
I577
sS'Bob Marshall'
p580
I578
sS'Purvis'
p581
I341
sS'Hebert'
p582
I580
sS'Corvo'
p583
I581
sS'Joseph Dunn'
p584
I582
sS'Osborn'
p585
I583
sS'Shaud Wilson'
p586
I584
sS'Kelt'
p587
I342
sS'Phong Tran'
p588
I586
sS'Berni'
p589
I343
sS'Marshall'
p590
I588
sS'Raftelis'
p591
I589
sS'Couhig'
p592
I590
sS'Vic Richard'
p593
I591
sS'Hammonds'
p594
I592
sS'Mary Landrieu'
p595
I593
sS'Ingrid Labat'
p596
I741
sS'Otis'
p597
I595
sS'Alexina Medley'
p598
I596
sS'Wool'
p599
I763
sS'Tubman'
p600
I598
sS'Matt Davis'
p601
I599
sS'Dan Henderson'
p602
I600
sS'Eileen Williams'
p603
I601
sS'Kevin Maney'
p604
I602
sS'Darrin Cook'
p605
I603
sS'Brian Richburg'
p606
I604
sS'Fertitta'
p607
I806
sS'Katie Schwartzmann'
p608
I606
sS'Helene Derbigny'
p609
I607
sS'Jindal'
p610
I608
sS'Carlos Zervigon'
p611
I609
sS'Phil Stelly'
p612
I610
sS'Lance Harris'
p613
I611
sS'Granderson'
p614
I612
sS'Rob Couhig'
p615
I613
sS'Im'
p616
I614
sS'Alpaugh'
p617
I615
sS'Montes'
p618
I616
sS'Kenneth Charity'
p619
I617
sS'Barrios'
p620
I618
sS'Estopinal'
p621
I619
sS'Ross Anderson'
p622
I620
sS'Clouet'
p623
I621
sS'Muntean'
p624
I622
sS'Cowan'
p625
I623
sS'James Carter'
p626
I624
sS'Kristin Gisleson Palmer'
p627
I625
sS'Derek Rabb'
p628
I626
sS'Kullman'
p629
I627
sS'Greg St. Etienne'
p630
I628
sS'MacPhaille'
p631
I629
sS'Georges'
p632
I630
sS'Norton'
p633
I313
sS'Claire McDaniel'
p634
I631
sS'Martin Luther King'
p635
I632
sS'Mao'
p636
I633
sS'Ursin'
p637
I1362
sS'Robichaux'
p638
I635
sS'Alvin Meister'
p639
I636
sS'Harriet Tubman'
p640
I637
sS'Perry'
p641
I638
sS'Plessy'
p642
I639
sS'Charles Petrey'
p643
I640
sS'Vong Nguyen'
p644
I641
sS'David Bordson-Bozzo'
p645
I1019
sS'Bedell'
p646
I643
sS'Darryl Kilbert'
p647
I644
sS'Douglass'
p648
I645
sS'Thelma Ruth'
p649
I646
sS'Mary Kay Parker'
p650
I647
sS'Kesana Durand'
p651
I648
sS'Landrieu'
p652
I649
sS'Jon Johnson'
p653
I650
sS'Joseph Daschbach'
p654
I651
sS'Melissa Lessell'
p655
I652
sS'Errol B. Conley'
p656
I1086
sS'Shawn Toranto'
p657
I654
sS'Roslyn Smith'
p658
I655
sS'Richard Pennington'
p659
I656
sS'Teague'
p660
I657
sS'Cynthia Hedge-Morrell'
p661
I658
sS'Principal Robertson'
p662
I659
sS'MacPhee'
p663
I660
sS'Floyd'
p664
I661
sS'Bower'
p665
I662
sS'Sharonda Williams'
p666
I663
sS'Bartlett'
p667
I664
sS'Jana Smith'
p668
I665
sS'Obama'
p669
I666
sS'Jindals'
p670
I667
sS'Brian Jacobs'
p671
I420
sS'Jan Moller'
p672
I668
sS'Beckner'
p673
I670
sS'Walker'
p674
I671
sS'Johnston'
p675
I672
sS'Gusmans'
p676
I673
sS'Brooke Muntean'
p677
I674
sS'Rodriguez'
p678
I675
sS'Joseph'
p679
I676
sS'Louisa'
p680
I677
sS'Sean Perkins'
p681
I678
sS'Hutson'
p682
I679
sS'Gregory Thompson'
p683
I680
sS'Robert Bell'
p684
I681
sS'Garland'
p685
I682
sS'Zanders'
p686
I683
sS'Sybil Favrot'
p687
I684
sS'Watson'
p688
I1307
sS'Broussard'
p689
I686
sS'Ramsey Green'
p690
I687
sS'Walcott'
p691
I688
sS'Charlie Mackles'
p692
I968
sS'Scott Jacobs'
p693
I690
sS'Ashley Beckner'
p694
I691
sS'Victor Gordon'
p695
I692
sS'Ben Mays'
p696
I693
sS'Ed Shanklin'
p697
I694
sS'Timothy Ryan'
p698
I695
sS'Tracy Joseph'
p699
I696
sS'Peggy Wilson'
p700
I697
sS'Edison'
p701
I698
sS'Derek Bardell'
p702
I699
sS'Blakely'
p703
I700
sS'Schmidt'
p704
I701
sS'Erin Greenwald'
p705
I702
sS'Brown'
p706
I703
sS'Matthew Amoss'
p707
I704
sS'Gaudry'
p708
I705
sS'Lance Africk'
p709
I706
sS'William J. Fischer'
p710
I707
sS'Charleen Blache'
p711
I708
sS'Anna Burrell'
p712
I709
sS'Darren Beltz'
p713
I710
sS'James Perry'
p714
I711
sS'Troy Henry'
p715
I712
sS'Cam Thanh Tran'
p716
I1053
sS'Wanda Brooks'
p717
I714
sS'Andrea Armstrong'
p718
I715
sS'Fowler'
p719
I716
sS'Nagin'
p720
I717
sS'Klingler'
p721
I718
sS'Charles Southall III'
p722
I130
sS'Simone Green'
p723
I720
sS'Chase'
p724
I721
sS'Schlesinger'
p725
I722
sS'Steve Barr'
p726
I723
sS'John Barry'
p727
I724
sS'Sametta Brown'
p728
I725
sS'Madonna Green'
p729
I726
sS'Jim Fannin'
p730
I727
sS'Keith Crawford'
p731
I728
sS'Shafer'
p732
I1185
sS'Edwin Murray'
p733
I729
sS'Jason Williams'
p734
I730
sS'Rusnak'
p735
I731
sS'Marcovitz'
p736
I732
sS'Clark'
p737
I733
sS'Buddy Roemer'
p738
I734
sS'Heather Schwartz'
p739
I735
sS'Dobard'
p740
I736
sS'Victor'
p741
I737
sS'Loeffelholz'
p742
I738
sS'Jason Hughes'
p743
I739
sS'Tom Slager'
p744
I740
sS'Akili Academys'
p745
I594
sS'Clarence Robinson'
p746
I742
sS'Mary Ellen Alexander'
p747
I743
sS'Francis Cascio'
p748
I744
sS'Claire Adriaan'
p749
I745
sS'Beatty'
p750
I746
sS'Zoey Reed'
p751
I747
sS'Laurin Jacobsen'
p752
I748
sS'Kennedy'
p753
I749
sS'Blake LeMaire'
p754
I750
sS'Ducote'
p755
I751
sS'Ruocco'
p756
I752
sS'Jabbar'
p757
I373
sS'Buddy Caldwell'
p758
I754
sS'Wade'
p759
I755
sS'Dupre'
p760
I756
sS'Sylvanie Williams'
p761
I757
sS'Sophie B. Wrights'
p762
I758
sS'Thompson'
p763
I759
sS'Coleman'
p764
I760
sS'Claire Jecklin'
p765
I761
sS'Jacobsen'
p766
I762
sS'Carpenter'
p767
I764
sS'Amato'
p768
I765
sS'Chauncey Nash'
p769
I766
sS'Anderson-Guillaume'
p770
I487
sS'Kelly'
p771
I768
sS'Doody'
p772
I498
sS'Ninh Tran'
p773
I770
sS'Stevens'
p774
I771
sS'Richard Cortizas'
p775
I772
sS'Dudek'
p776
I773
sS'Alvaro Alcazar'
p777
I338
sS'Christopher Kaul'
p778
I774
sS'Lee Adler'
p779
I775
sS'Joseph Craig Elementary'
p780
I776
sS'Nolan Marshall Jr.'
p781
I777
sS'Paul Pechon'
p782
I778
sS'Kleban'
p783
I779
sS'Bill Davis'
p784
I780
sS'Diaz'
p785
I781
sS'Allen Square'
p786
I782
sS'Sams'
p787
I783
sS'John Gaudry'
p788
I784
sS'Marco'
p789
I785
sS'Tap Bui'
p790
I786
sS'Benjamin Franklin'
p791
I787
sS'Nichols'
p792
I788
sS'Lecour'
p793
I789
sS'Chuck Gasho'
p794
I790
sS'Jerome Jordan'
p795
I791
sS'Bertsch'
p796
I792
sS'Christopher Sepulvado'
p797
I793
sS'Amy Knower'
p798
I794
sS'John McDonoghs'
p799
I795
sS'Robert Jackson'
p800
I796
sS'JP Hymel'
p801
I797
sS'Lappa'
p802
I798
sS'Warren Riley'
p803
I799
sS'Cynthia Cade'
p804
I800
sS'Jefferson'
p805
I801
sS'L.B. Landry-O'
p806
I802
sS'Nannette Jolivette Brown'
p807
I803
sS'Ted Alpaugh'
p808
I804
sS'Mercedes Montagnes'
p809
I805
sS'Hicks'
p810
I605
sS'Murray Pitts'
p811
I807
sS'Terry Ebbert'
p812
I808
sS'Hester Cottles'
p813
I809
sS'LeCesne'
p814
I810
sS'Mackles'
p815
I811
sS'Reid'
p816
I812
sS'Evans'
p817
I813
sS'Charbonnet'
p818
I814
sS'Gilbane'
p819
I815
sS'Gary Robichaux'
p820
I816
sS'Allison Bent'
p821
I817
sS'Jon Smith'
p822
I818
sS'Jonathan Bertsch'
p823
I819
sS'Altman'
p824
I820
sS'Dayphne Burnett'
p825
I821
sS'Matthews'
p826
I822
sS'Louella Givens'
p827
I823
sS'Geymann'
p828
I824
sS'Gladstone Jones'
p829
I825
sS'Clarkson'
p830
I826
sS'John Whites'
p831
I827
sS'Emily Waterfield'
p832
I828
sS'Malin'
p833
I829
sS'Mary Laurie'
p834
I830
sS'Kathy Conklin'
p835
I831
sS'Doug Harrell'
p836
I832
sS'Ruth Ramsey'
p837
I834
sS'Jonathan Wilson'
p838
I835
sS'Mark Mayer'
p839
I836
sS'Carol Skriloff Starr'
p840
I837
sS'John Tobler'
p841
I902
sS'John Edwards'
p842
I839
sS'Douglas'
p843
I840
sS'Carmouche'
p844
I841
sS'Stephen Perry'
p845
I842
sS'Lyces'
p846
I843
sS'Martins'
p847
I844
sS'Ryan Berni'
p848
I845
sS'Brenda Christiansen'
p849
I846
sS'Elaine Reyes'
p850
I847
sS'Cantrell'
p851
I848
sS'Yvonne Locke'
p852
I849
sS'Julien'
p853
I850
sS'James Pineda'
p854
I851
sS'Ventura'
p855
I852
sS'Robinson'
p856
I853
sS'Norris'
p857
I854
sS'James Baker'
p858
I855
sS'Marc Morial'
p859
I856
sS'Hill'
p860
I857
sS'Dee Fuchs'
p861
I858
sS'Helena Moreno'
p862
I859
sS'Henderson'
p863
I860
sS'Schedler'
p864
I861
sS'Tim Barfield'
p865
I862
sS'Dunn'
p866
I863
sS'Jessie Hoffman'
p867
I158
sS'Reed'
p868
I1072
sS'Rouse'
p869
I866
sS'Tessa Jackson'
p870
I867
sS'Alario'
p871
I868
sS'Eva Alito'
p872
I869
sS'Dupuy'
p873
I1119
sS'David Vitter'
p874
I871
sS'Niloy Gangopadhyay'
p875
I872
sS'Jared Frank'
p876
I873
sS'Cornelius Tilton'
p877
I874
sS'Larkins'
p878
I875
sS'Whitehead'
p879
I876
sS'Graves'
p880
I877
sS'Fox'
p881
I878
sS'Jernigan'
p882
I879
sS'Damon Burns'
p883
I880
sS'Wright'
p884
I881
sS'Glaser'
p885
I882
sS'Michelle Douglas'
p886
I883
sS'Waterfield'
p887
I884
sS'Ramona Perkins'
p888
I885
sS'Osborne'
p889
I886
sS'Gamble'
p890
I1305
sS'Richards'
p891
I888
sS'King'
p892
I889
sS'Moret'
p893
I890
sS'Chin'
p894
I891
sS'Todd'
p895
I892
sS'Trujillo'
p896
I893
sS'Graham'
p897
I894
sS'Scott Sternberg'
p898
I895
sS'Gusman'
p899
I896
sS'Pineda'
p900
I897
sS'Lynden Swayze'
p901
I898
sS'Sean Wilson'
p902
I899
sS'Deemer'
p903
I900
sS'Hiser'
p904
I901
sS'Allen Kelly'
p905
I838
sS'Lyce Francais'
p906
I903
sS'Raza'
p907
I904
sS'Grisela Jackson'
p908
I905
sS'David Gilmore'
p909
I906
sS'Sandra Bullock'
p910
I907
sS'Edwards'
p911
I908
sS'Delarge'
p912
I909
sS'Osterberg'
p913
I910
sS'Lycee Francais'
p914
I911
sS'Weishaupt'
p915
I912
sS'Barbara MacPhee'
p916
I913
sS'Pinero'
p917
I914
sS'David Muth'
p918
I915
sS'Willie Zanders'
p919
I916
sS'Charles Fenet'
p920
I917
sS'Dastugue'
p921
I918
sS'Ebbert'
p922
I919
sS'Wisner'
p923
I920
sS'Todd Schexnayder'
p924
I921
sS'Kathleen Carlin'
p925
I922
sS'Catrina Reed'
p926
I923
sS'Cox'
p927
I924
sS'Connick'
p928
I925
sS'Frank Williams'
p929
I926
sS'Caroline Roemer Shirley'
p930
I927
sS'Elizabeth Rhodes'
p931
I928
sS'Robert Delle'
p932
I929
sS'Karr'
p933
I153
sS'Miller-McCoys'
p934
I931
sS'Carter'
p935
I932
sS'Miller'
p936
I933
sS'Ali McCormick'
p937
I934
sS'Booker'
p938
I935
sS'Randy Roig'
p939
I936
sS'Nelson'
p940
I1314
sS'Dwight McKenna'
p941
I938
sS'Bernard'
p942
I939
sS'Ben Castoriano'
p943
I940
sS'Charles Maldonado'
p944
I941
sS'Adrian Morgan'
p945
I942
sS'Hesson'
p946
I943
sS'Gregory St. Etienne'
p947
I944
sS'Debra Robertson'
p948
I945
sS'Sheila Danzey'
p949
I946
sS'Sal Genovese'
p950
I947
sS'Brian Weimer'
p951
I948
sS'Arthur Williams Jr.'
p952
I949
sS'Catherine MacPhaille'
p953
I950
sS'Delgado'
p954
I951
sS'Timothy Jackson'
p955
I952
sS'Ben McLeish'
p956
I953
sS'Henderson Lewis Jr.'
p957
I954
sS'John Alario'
p958
I955
sS'Anthony Amato'
p959
I956
sS'Nadine Ramsey'
p960
I957
sS'Jolynn King'
p961
I958
sS'Cohen'
p962
I959
sS'Bradley'
p963
I960
sS'Griffin'
p964
I961
sS'Gert Town'
p965
I962
sS'Guillory'
p966
I963
sS'Neary'
p967
I964
sS'David St. Etienne'
p968
I965
sS'Shelley Landrieu'
p969
I966
sS'Dangerfield'
p970
I967
sS'Christian Rhodes'
p971
I969
sS'Frantz'
p972
I970
sS'Frank'
p973
I971
sS'Bobby Hardrick'
p974
I972
sS'Sneed'
p975
I973
sS'Lysianne Essama'
p976
I974
sS'Darleene Peters'
p977
I975
sS'Brady'
p978
I977
sS'Brimmer'
p979
I978
sS'Bill'
p980
I979
sS'Tennyson'
p981
I980
sS'David'
p982
I981
sS'J.P. Hymel'
p983
I982
sS'Davis'
p984
I983
sS'Cassandra Youmans'
p985
I984
sS'Payton'
p986
I985
sS'Catherine Pierson'
p987
I986
sS'Singleton'
p988
I987
sS'Taylor'
p989
I976
sS'Sepulvado'
p990
I989
sS'Dolores T. Aaron Elementary'
p991
I990
sS'Kyshun Webster'
p992
I991
sS'Hawkins'
p993
I992
sS'Shaw'
p994
I993
sS'Young'
p995
I994
sS'Dolliole'
p996
I995
sS'Karen Carter Peterson'
p997
I996
sS'Hilda Young'
p998
I997
sS'Derwyn Bunton'
p999
I998
sS'Chas Roemer'
p1000
I999
sS'Laura Hawkins'
p1001
I1000
sS'Alan Philipson'
p1002
I1001
sS'Franklins'
p1003
I1002
sS'Herb Patterson'
p1004
I1003
sS'Anthony'
p1005
I1004
sS'Harry Blumenthal'
p1006
I1005
sS'Hines'
p1007
I1006
sS'Adley'
p1008
I417
sS'Esperanza'
p1009
I1008
sS'Nola'
p1010
I1009
sS'Franklin'
p1011
I1010
sS'Stacey Gengel'
p1012
I1011
sS'Kira Orange Jones'
p1013
I1012
sS'Quatrevaux'
p1014
I1013
sS'Austin'
p1015
I1014
sS'Shea'
p1016
I1015
sS'Africk'
p1017
I1016
sS'Bell'
p1018
I1017
sS'Bennett'
p1019
I1018
sS'Susan Hutson'
p1020
I642
sS'Rodney Lilley'
p1021
I1020
sS'Michael Cowan'
p1022
I1021
sS'Lindo'
p1023
I1022
sS'Hillard Heintze'
p1024
I1023
sS'Sartisky'
p1025
I1024
sS'Matt Amoss'
p1026
I1025
sS'Rasheed'
p1027
I1026
sS'Saleun'
p1028
I1027
sS'Curtis'
p1029
I1028
sS'Harding'
p1030
I1029
sS'Cora Charles'
p1031
I1030
sS'Gail Lazard'
p1032
I1031
sS'Chervenak'
p1033
I1032
sS'Kyle Graham'
p1034
I1033
sS'Riser'
p1035
I1034
sS'Logan Crowe'
p1036
I1035
sS'Courtney Garrett'
p1037
I1036
sS'Riedlinger'
p1038
I1037
sS'Roemer Shirley'
p1039
I1038
sS'Lusher'
p1040
I1039
sS'Janice Dupuy'
p1041
I1040
sS'Wanda Guillaume'
p1042
I1041
sS'Blaine LeCesne'
p1043
I1042
sS'Lourdes Moran'
p1044
I1043
sS'Andrew Wilson'
p1045
I423
sS'Sarah Usdin'
p1046
I1045
sS'Reynolds'
p1047
I1046
sS'Scott'
p1048
I1047
sS'Turner'
p1049
I1048
sS'Eartha Johnson'
p1050
I1049
sS'Gressett'
p1051
I1050
sS'George Freeman'
p1052
I1051
sS'Tim Ryan'
p1053
I1052
sS'Darby'
p1054
I713
sS'Al Miester'
p1055
I1054
sS'Tyler Gamble'
p1056
I1055
sS'Michael Booker'
p1057
I1056
sS'Swanson'
p1058
I1057
sS'James Gray'
p1059
I1058
sS'Lyce'
p1060
I1059
sS'Rhodes'
p1061
I1060
sS'Jeff Hebert'
p1062
I1061
sS'Danzey'
p1063
I1062
sS'Sims'
p1064
I1063
sS'Vera Triplett'
p1065
I1064
sS'Roemer'
p1066
I1065
sS'Howard'
p1067
I1066
sS'Picard'
p1068
I1067
sS'Garret Graves'
p1069
I1068
sS'Mary Zervigon'
p1070
I1069
sS'John Sens'
p1071
I1070
sS'Hammond'
p1072
I1071
sS'Tim Doody'
p1073
I865
sS'Randall'
p1074
I1073
sS'Tanya Bryant'
p1075
I1074
sS'Greer'
p1076
I1075
sS'Susan Krinsky'
p1077
I1076
sS'Finegan'
p1078
I1077
sS'Green'
p1079
I1078
sS'LeBlanc'
p1080
I1079
sS'Boyer'
p1081
I1080
sS'Moton'
p1082
I1082
sS'Kendal Turner'
p1083
I1083
sS'Stan Smith'
p1084
I1084
sS'Wheatley'
p1085
I864
sS'Lauren Hightower'
p1086
I1085
sS'Nancy Marshall'
p1087
I653
sS'Brian Egana'
p1088
I1087
sS'Dominique Wilson'
p1089
I1088
sS'Jim Nelson'
p1090
I432
sS'Daniels'
p1091
I1090
sS'Mitch Landrieu'
p1092
I1091
sS'Avery Corenswet'
p1093
I1092
sS'Robert Burvant'
p1094
I1093
sS'Akili'
p1095
I1094
sS'Karen Gadbois'
p1096
I1095
sS'Lafitte'
p1097
I1096
sS'Barbier'
p1098
I1097
sS'Lemle'
p1099
I1098
sS'Nash'
p1100
I1099
sS'Agnieszka McPeak'
p1101
I1100
sS'Carolyn Hill'
p1102
I1101
sS'Frosch'
p1103
I1102
sS'Jay Altman'
p1104
I1103
sS'Reidlinger'
p1105
I1104
sS'Dana Kaplan'
p1106
I1106
sS'Tiffany Hardrick'
p1107
I1107
sS'Sophie B. Wright'
p1108
I1108
sS'Blumenthal'
p1109
I1109
sS'Clayton'
p1110
I1110
sS'Bankston'
p1111
I1111
sS'Ashton Ryan Jr.'
p1112
I1112
sS'Thomas Robichaux'
p1113
I1113
sS'Ryan'
p1114
I1114
sS'Bernell St. Cyr'
p1115
I1115
sS'Garcia'
p1116
I1116
sS'Elizabeth Sigler'
p1117
I1117
sS'Barthelemy'
p1118
I1118
sS'Greg Thompson'
p1119
I870
sS'Margaret Nguyen'
p1120
I1120
sS'Abe Handler'
p1121
I1121
sS'Kathleen Blanco'
p1122
I1122
sS'Dave Whiddon'
p1123
I1123
sS'Shaun Rafferty'
p1124
I1197
sS'Adriaan'
p1125
I1125
sS'Wilson'
p1126
I1126
sS'Jacqueline Simon'
p1127
I1127
sS'Smith'
p1128
I1128
sS'Phillips'
p1129
I1129
sS'Favre'
p1130
I1130
sS'Julianne Ruocco'
p1131
I1131
sS'Brooks'
p1132
I1132
sS'Allison Bent Bowler'
p1133
I1133
sS'Hilburn'
p1134
I1134
sS'Tim Bryant'
p1135
I1135
sS'Gatehouse'
p1136
I1136
sS'Colton'
p1137
I1137
sS'Janet Howard'
p1138
I1138
sS'Cao'
p1139
I1139
sS'Jeff Teague'
p1140
I1140
sS'Kevin Kane'
p1141
I1141
sS'Terri Smith'
p1142
I1142
sS'Kern Reese'
p1143
I1143
sS'Kristyna Jones'
p1144
I1144
sS'Ora Wiley'
p1145
I1145
sS'Landis'
p1146
I1146
sS'Ben Kleban'
p1147
I1147
sS'Philipson'
p1148
I1148
sS'Mills'
p1149
I1149
sS'Miller-McCoy'
p1150
I1150
sS'Donahue'
p1151
I1151
sS'Juaquana Stewart'
p1152
I1152
sS'Julian Parker'
p1153
I1153
sS'John Bel Edwards'
p1154
I1154
sS'Edwin Edwards'
p1155
I1155
sS'Salmon Shomade'
p1156
I1156
sS'Lagniappe'
p1157
I1157
sS'Vera'
p1158
I1158
sS'Arnie Fielkow'
p1159
I1159
sS'Waganfeald'
p1160
I1160
sS'Susan Norwood'
p1161
I1161
sS'Victoria Johnson'
p1162
I1162
sS'Colin Brooks'
p1163
I1163
sS'James Austin'
p1164
I1164
sS'Keith Hardie'
p1165
I1165
sS'David Winkler-Schmit'
p1166
I1166
sS'Morrell'
p1167
I1167
sS'Marjorie Esman'
p1168
I1168
sS'Janet Gaudet'
p1169
I1169
sS'Roland Doucette'
p1170
I1170
sS'Jack Carey'
p1171
I1171
sS'Jentoft'
p1172
I1172
sS'Duris Holmes'
p1173
I1173
sS'Dejean'
p1174
I1174
sS'Angela Kinlaw'
p1175
I1175
sS'Dana Henry'
p1176
I1176
sS'Fielkow'
p1177
I1177
sS'Delisalynn'
p1178
I100
sS'Brent Washington'
p1179
I1179
sS'Kevin Guitterrez'
p1180
I1180
sS'Doris Hicks'
p1181
I1181
sS'Hawf'
p1182
I1182
sS'James LeBlanc'
p1183
I1183
sS'Walsworth'
p1184
I1184
sS'Porcari'
p1185
I833
sS'Burnett'
p1186
I1186
sS'Harney'
p1187
I1187
sS'Robert Adley'
p1188
I1188
sS'Ellison'
p1189
I1189
sS'Wolff'
p1190
I222
sS'Della Hasselle'
p1191
I1191
sS'Kunkel'
p1192
I1192
sS'Richard'
p1193
I1193
sS'Felton'
p1194
I1194
sS'Paul Rainwater'
p1195
I1336
sS'Simms'
p1196
I1196
sS'Shelia Hebert'
p1197
I689
sS'Charles Foti'
p1198
I1124
sS'Kristen Lozada'
p1199
I224
sS'Boyett'
p1200
I281
sS'Kim Henry'
p1201
I1200
sS'Carla Major'
p1202
I1201
sS'Tran'
p1203
I1202
sS'Wayne James'
p1204
I325
sS'Patricia Adams'
p1205
I1204
sS'Gisleson Palmer'
p1206
I1205
sS'Barbara Griffin'
p1207
I1206
sS'Kindall Petri'
p1208
I1207
sS'Hedge-Morrell'
p1209
I1208
sS'Julie MacFetters'
p1210
I1209
sS'Ostroske'
p1211
I1210
sS'Michael Todd'
p1212
I1211
sS'Keeanya Dupre'
p1213
I1212
sS'McNamara'
p1214
I1213
sS'Nicole Boudreaux'
p1215
I1214
sS'Conrad Appel'
p1216
I1215
sS'Bishop'
p1217
I1216
sS'Jack Bergman'
p1218
I1217
sS'L.B. Landry'
p1219
I1218
sS'Ben Franklins'
p1220
I1219
sS'Jolene Jeff'
p1221
I1220
sS'Stephen Tremaine'
p1222
I1221
sS'Edna Karr'
p1223
I1222
sS'Raashand Hamilton'
p1224
I1223
sS'Barbara Richard'
p1225
I1224
sS'Greg Albrecht'
p1226
I1225
sS'Chris Broadwater'
p1227
I1226
sS'Pennington'
p1228
I1227
sS'Kendall Petri'
p1229
I1228
sS'Sheila Nelson'
p1230
I1229
sS'James Henderson'
p1231
I1230
sS'J.P. Morrell'
p1232
I1231
sS'Joel Vilmenay'
p1233
I1232
sS'Ruth Kullman'
p1234
I1233
sS'Don Wheat'
p1235
I1234
sS'Stelly'
p1236
I1235
sS'Rosner'
p1237
I1236
sS'Benjamin Orillon'
p1238
I1237
sS'Sullivan'
p1239
I1238
sS'Biagas'
p1240
I1239
sS'NORA'
p1241
I1240
sS'Jennifer Weishaupt'
p1242
I1241
sS'Gilmore'
p1243
I1242
sS'C.B. Forgotston'
p1244
I1243
sS'Petri'
p1245
I1244
sS'Sens'
p1246
I1245
sS'Woody Koppel'
p1247
I1246
sS'Crenshaw'
p1248
I1247
sS'Campo'
p1249
I1248
sS'Moreno'
p1250
I1249
sS'Harte'
p1251
I574
sS'Donnica Conway'
p1252
I1251
sS'Billy Hatchett'
p1253
I1252
sS'Woods'
p1254
I1253
sS'Laborde'
p1255
I1254
sS'Rosenthal'
p1256
I1255
sS'Brice'
p1257
I1256
sS'Kathleen Padian'
p1258
I1257
sS'Marullo'
p1259
I1258
sS'Warren Eastons'
p1260
I1259
sS'Gary Ostroske'
p1261
I1260
sS'Eric Griggs'
p1262
I1261
sS'Sternberg'
p1263
I1262
sS'Craigs'
p1264
I1263
sS'Cannizzaro'
p1265
I1264
sS'Jim Singleton'
p1266
I1265
sS'Mobley'
p1267
I1266
sS'Richardson'
p1268
I1267
sS'Peter Harding'
p1269
I1268
sS'Wildes'
p1270
I1269
sS'Al Shaw'
p1271
I1270
sS'Christopher Sepulvados'
p1272
I1271
sS'Kristy Nichols'
p1273
I1272
sS'Yon'
p1274
I1273
sS'Jacobs'
p1275
I1274
sS'Varley'
p1276
I1275
sS'Square'
p1277
I988
sS'Marchand'
p1278
I1276
sS'Rick Conway'
p1279
I295
sS'Jecklin'
p1280
I1278
sS'Ben Marcovitz'
p1281
I1279
sS'Goyeneche'
p1282
I1280
sS'Leslie Ellison'
p1283
I1281
sS'Jacqueline Smith'
p1284
I1282
sS'Keith Twitchell'
p1285
I1283
sS'Laurie White'
p1286
I1284
sS'Lapeyre'
p1287
I1285
sS'Leslie Jacobs'
p1288
I1286
sS'Greggory Harris'
p1289
I1287
sS'Tania Moore'
p1290
I1288
sS'Mitchell'
p1291
I1289
sS'Marlin Gusmans'
p1292
I1290
sS'Mackay'
p1293
I1291
sS'Perkins'
p1294
I1292
sS'Moran'
p1295
I1293
sS'Simonne Robinson'
p1296
I1294
sS'C.J. Bower'
p1297
I1295
sS'Hal Brown'
p1298
I1296
sS'Paul Barron'
p1299
I1297
sS'Cecilia Garcia'
p1300
I1298
sS'Wanda Anderson-Guillaume'
p1301
I1299
sS'Jon Johnsons'
p1302
I1300
sS'Zervigon'
p1303
I1301
sS'Jim Letten'
p1304
I1302
sS'Lozier'
p1305
I1303
sS'Avione Pichon'
p1306
I1304
sS'Jeff Angers'
p1307
I887
sS'Tracie Washington'
p1308
I1306
sS'Liza Sherman'
p1309
I685
sS'Marcellus Grace'
p1310
I1308
sS'Jay Lapeyre'
p1311
I1309
sS'OConnell'
p1312
I1310
sS'Jasmine Haralson'
p1313
I1311
sS'Joseph Gilyot'
p1314
I1312
sS'Barack Obama'
p1315
I1313
sS'Clements'
p1316
I937
sS'Chenevert'
p1317
I1315
sS'Penny Dastugue'
p1318
I1316
sS'Rebekah Cain'
p1319
I1317
sS'Ann Meese'
p1320
I1318
sS'Rachal'
p1321
I1319
sS'Paul Pastorek'
p1322
I1320
sS'Iverson'
p1323
I1321
sS'Catherine Boozer'
p1324
I1322
sS'Emily Wolff'
p1325
I1323
sS'Cade'
p1326
I1324
sS'Susan Weeks'
p1327
I1325
sS'Ben Blanchard'
p1328
I1326
sS'Pierre Capdau'
p1329
I1327
sS'Mehok'
p1330
I1328
sS'George Rabb'
p1331
I1329
sS'John McDonogh'
p1332
I1330
sS'Raby'
p1333
I1331
sS'Rabb'
p1334
I1332
sS'Conley'
p1335
I1333
sS'Shahan'
p1336
I1334
sS'Crocker'
p1337
I60
sS'McCormick'
p1338
I1335
sS'Barron'
p1339
I1337
sS'Baker'
p1340
I1338
sS'Paul Vallas'
p1341
I1339
sS'Bryant'
p1342
I1340
sS'Paulette Bruno'
p1343
I1341
sS'Leslie Bouie'
p1344
I1342
sS'Boozer'
p1345
I1343
sS'Chester'
p1346
I1344
sS'Mark Morgan'
p1347
I1345
sS'Marina Schoen'
p1348
I1346
sS'Michelle Craig'
p1349
I1347
sS'Timolynn Sams'
p1350
I1348
sS'Jason Coleman'
p1351
I1349
sS'Stephen Osborn'
p1352
I1350
sS'Cedric Grant'
p1353
I1384
sS'Paul Sens'
p1354
I1352
sS'Joe Long'
p1355
I1353
sS'Morris Jeffs'
p1356
I1354
sS'Thomas-Reynolds'
p1357
I1355
sS'O. Perry Walker'
p1358
I1356
sS'Nolan Marshall'
p1359
I1357
sS'Ramsey'
p1360
I1358
sS'Andrew H. Wilson'
p1361
I1359
sS'Medard H. Nelson'
p1362
I1360
sS'Blake Oakes'
p1363
I1361
sS'Ronald McDonald'
p1364
I1363
sS'Paige Saleun'
p1365
I1364
sS'Gangopadhyay'
p1366
I1365
sS'Lushers'
p1367
I1366
sS'Ive'
p1368
I1367
sS'Sean Berner'
p1369
I1368
sS'Jim Richardson'
p1370
I1369
sS'Einstein'
p1371
I1370
sS'John Jones'
p1372
I1371
sS'Hymel'
p1373
I1372
sS'Diana Bajoie'
p1374
I1373
sS'Charles Varley'
p1375
I1374
sS'Berrigan'
p1376
I1375
sS'Jenny Hunter'
p1377
I1376
sS'Jr.'
p1378
I1377
sS'McKneely'
p1379
I1378
sS'John Mac'
p1380
I1379
sS'Shanda Gentry'
p1381
I1380
sS'Guidry'
p1382
I1381
sS'Faircloth'
p1383
I1382
sS'Morgan'
p1384
I1383
sS'Ben Franklin'
p1385
I1351
sS'Stewart'
p1386
I1385
sS'Rafael Goyeneche'
p1387
I1386
sS'Neilson'
p1388
I1387
sS'Tom Gogola'
p1389
I597
sS'Helen Berrigan'
p1390
I1388
s.